Certificate:
    Data:
        Version: 3 (0x2)
        Serial Number: 4106 (0x100a)
        Signature Algorithm: sha256WithRSAEncryption
        Issuer: C=US, ST=MA, L=Wakefield, O=The Apache Software Foundation, OU=Apache Tomcat PMC, CN=Apache Tomcat Test CA
        Validity
            Not Before: Feb 17 15:12:12 2021 GMT
            Not After : Feb 17 15:12:12 2023 GMT
        Subject: C=US, ST=DE, L=Wilmington, O=The Apache Software Foundation, OU=Apache Tomcat PMC, CN=localhost
        Subject Public Key Info:
            Public Key Algorithm: id-ecPublicKey
                Public-Key: (256 bit)
                pub:
                    04:ab:46:91:f9:d4:b7:5a:92:57:70:32:5c:04:ce:
                    ce:31:39:66:30:cb:2e:59:97:6c:1f:06:0e:51:9d:
                    78:20:bd:23:5f:44:36:00:5e:13:da:dc:63:a4:98:
                    44:48:50:ba:65:1b:e9:4c:b8:e3:b6:da:66:63:c8:
                    0c:40:ee:3e:23
                ASN1 OID: prime256v1
                NIST CURVE: P-256
        X509v3 extensions:
            X509v3 Basic Constraints: 
                CA:FALSE
            Netscape Comment: 
                OpenSSL Generated Certificate
            X509v3 Subject Key Identifier: 
                51:59:C0:F4:44:A9:DD:9B:AE:0E:19:2E:66:89:CC:C1:ED:56:B6:3F
            X509v3 Authority Key Identifier: 
                keyid:00:F2:98:4D:21:2C:00:3C:40:9B:84:F4:DE:2A:F0:26:EE:32:0E:9F

    Signature Algorithm: sha256WithRSAEncryption
         a2:fd:07:71:93:5d:9f:2c:16:75:9c:e7:11:3e:6c:f6:19:78:
         9c:6d:bf:b3:ef:62:e9:20:25:93:a3:95:f7:64:db:b3:ed:c2:
         36:3b:da:29:3c:1c:59:d7:5b:56:b8:4b:03:7f:28:94:7b:71:
         fb:a9:06:18:da:f8:da:ff:ee:82:9e:da:b4:8c:e1:4a:d4:bf:
         84:a1:e7:37:de:f3:d8:d4:5f:3f:b2:8d:e2:33:3e:47:86:d7:
         01:13:14:2d:4c:65:f8:05:d4:fa:d2:55:61:40:f5:b0:95:3d:
         da:57:7a:e3:06:39:45:f4:a3:59:a7:75:d7:6c:44:c9:85:e7:
         e9:78:ab:04:f2:92:7b:9d:62:16:cb:33:33:4e:10:42:e3:86:
         34:47:8a:22:4f:45:f3:ca:2d:a7:24:6a:bf:78:07:e9:78:47:
         c7:36:db:7d:f0:3f:14:ab:20:82:fb:e1:d8:4c:05:98:df:97:
         15:be:31:51:f6:6f:73:6b:3a:b7:39:dc:78:e2:36:f0:da:9a:
         ff:d9:00:88:f6:66:8c:36:53:e2:4f:f5:ab:d3:cb:3e:0a:69:
         56:df:63:cb:89:34:b7:d5:6d:81:eb:38:1a:76:0e:59:0f:5e:
         d3:d9:54:b0:e7:a3:2c:70:89:4c:1e:9c:5f:c2:6a:22:70:05:
         e5:c9:9f:57:41:30:3f:c8:dc:27:dd:11:c8:25:76:a9:49:5b:
         26:18:96:44:18:31:10:21:bb:8a:fe:2c:41:40:9d:c8:e7:6a:
         1c:01:1b:11:10:72:7c:e7:50:e0:23:c2:81:81:6e:40:44:09:
         90:e0:d8:cc:6b:71:b0:fa:87:47:d8:bb:ce:e8:21:a1:29:30:
         4e:bc:46:1b:6c:2e:88:d8:2d:d2:44:6d:eb:0b:ee:e1:9c:df:
         d7:90:2a:fc:10:22:92:23:5d:2b:62:01:85:54:98:c7:ef:a0:
         50:7c:38:6b:ca:46:e9:e6:33:40:b3:66:b8:73:79:7a:cb:a4:
         98:15:53:de:16:67:03:52:77:1b:a3:6f:a2:0d:f6:4d:35:dd:
         78:5c:60:f0:f3:cc:56:77:4b:3a:fe:21:dc:7c:b9:9e:37:be:
         7a:79:db:fa:39:97:b5:98:d9:fa:3f:77:af:df:e3:55:25:da:
         14:82:30:8e:9e:66:02:11:83:bf:23:63:1b:e5:2b:a7:37:e1:
         b1:2e:95:dd:91:7c:3a:f0:58:26:32:fc:51:84:5b:0d:1f:a4:
         8d:1d:f3:a1:67:1a:48:af:91:e2:39:25:39:0e:78:06:b8:fb:
         c2:ef:b0:f3:24:fb:aa:20:36:ab:67:c1:45:79:5e:11:f1:2e:
         30:20:69:fc:46:9e:9e:0d
-----BEGIN CERTIFICATE-----
MIIESTCCAjGgAwIBAgICEAowDQYJKoZIhvcNAQELBQAwgZMxCzAJBgNVBAYTAlVT
MQswCQYDVQQIEwJNQTESMBAGA1UEBxMJV2FrZWZpZWxkMScwJQYDVQQKEx5UaGUg
QXBhY2hlIFNvZnR3YXJlIEZvdW5kYXRpb24xGjAYBgNVBAsTEUFwYWNoZSBUb21j
YXQgUE1DMR4wHAYDVQQDExVBcGFjaGUgVG9tY2F0IFRlc3QgQ0EwHhcNMjEwMjE3
MTUxMjEyWhcNMjMwMjE3MTUxMjEyWjCBiDELMAkGA1UEBhMCVVMxCzAJBgNVBAgM
AkRFMRMwEQYDVQQHDApXaWxtaW5ndG9uMScwJQYDVQQKDB5UaGUgQXBhY2hlIFNv
ZnR3YXJlIEZvdW5kYXRpb24xGjAYBgNVBAsMEUFwYWNoZSBUb21jYXQgUE1DMRIw
EAYDVQQDDAlsb2NhbGhvc3QwWTATBgcqhkjOPQIBBggqhkjOPQMBBwNCAASrRpH5
1LdakldwMlwEzs4xOWYwyy5Zl2wfBg5RnXggvSNfRDYAXhPa3GOkmERIULplG+lM
uOO22mZjyAxA7j4jo3sweTAJBgNVHRMEAjAAMCwGCWCGSAGG+EIBDQQfFh1PcGVu
U1NMIEdlbmVyYXRlZCBDZXJ0aWZpY2F0ZTAdBgNVHQ4EFgQUUVnA9ESp3ZuuDhku
ZonMwe1Wtj8wHwYDVR0jBBgwFoAUAPKYTSEsADxAm4T03irwJu4yDp8wDQYJKoZI
hvcNAQELBQADggIBAKL9B3GTXZ8sFnWc5xE+bPYZeJxtv7PvYukgJZOjlfdk27Pt
wjY72ik8HFnXW1a4SwN/KJR7cfupBhja+Nr/7oKe2rSM4UrUv4Sh5zfe89jUXz+y
jeIzPkeG1wETFC1MZfgF1PrSVWFA9bCVPdpXeuMGOUX0o1mndddsRMmF5+l4qwTy
knudYhbLMzNOEELjhjRHiiJPRfPKLackar94B+l4R8c2233wPxSrIIL74dhMBZjf
lxW+MVH2b3NrOrc53HjiNvDamv/ZAIj2Zow2U+JP9avTyz4KaVbfY8uJNLfVbYHr
OBp2DlkPXtPZVLDnoyxwiUwenF/CaiJwBeXJn1dBMD/I3CfdEcgldqlJWyYYlkQY
MRAhu4r+LEFAncjnahwBGxEQcnznUOAjwoGBbkBECZDg2MxrcbD6h0fYu87oIaEp
ME68RhtsLojYLdJEbesL7uGc39eQKvwQIpIjXStiAYVUmMfvoFB8OGvKRunmM0Cz
ZrhzeXrLpJgVU94WZwNSdxujb6IN9k013XhcYPDzzFZ3Szr+Idx8uZ43vnp52/o5
l7WY2fo/d6/f41Ul2hSCMI6eZgIRg78jYxvlK6c34bEuld2RfDrwWCYy/FGEWw0f
pI0d86FnGkivkeI5JTkOeAa4+8LvsPMk+6ogNqtnwUV5XhHxLjAgafxGnp4N
-----END CERTIFICATE-----
