Certificate:
    Data:
        Version: 3 (0x2)
        Serial Number: 4096 (0x1000)
    Signature Algorithm: sha256WithRSAEncryption
        Issuer: C=US, ST=MA, L=Wakefield, O=The Apache Software Foundation, OU=Apache Tomcat PMC, CN=Apache Tomcat Test CA
        Validity
            Not Before: Aug  8 10:41:05 2017 GMT
            Not After : Aug  8 10:41:05 2019 GMT
        Subject: C=US, ST=MA, L=Wakefield, O=The Apache Software Foundation, OU=Apache Tomcat PMC, CN=localhost
        Subject Public Key Info:
            Public Key Algorithm: rsaEncryption
                Public-Key: (2048 bit)
                Modulus:
                    00:a8:1a:8f:78:58:24:43:9d:90:e1:f2:d5:65:5d:
                    61:9d:0f:a8:08:20:2c:82:75:8b:b0:ce:96:ba:5b:
                    99:d3:6b:a2:f8:54:92:6d:07:cc:b3:66:84:8a:8b:
                    5f:1c:c8:53:eb:a2:c3:54:8c:ce:d0:a7:ff:11:da:
                    e8:78:a2:07:ea:ed:59:db:97:76:25:f7:c0:e8:6d:
                    43:07:fc:fe:1c:22:82:8a:5a:5c:63:82:8e:fb:53:
                    9b:46:47:81:34:95:79:75:15:0a:8d:c4:d8:d8:84:
                    df:30:53:d0:6e:40:2c:ba:3b:e2:a1:44:4d:43:de:
                    cf:b0:9e:44:a1:00:26:8f:ca:39:57:14:30:a7:6d:
                    9a:cc:e4:24:b0:44:1c:28:d3:c3:33:c1:e7:f7:0a:
                    2a:60:18:60:ed:34:d8:5f:86:a1:ce:c7:fe:cc:56:
                    b0:68:18:46:d2:a0:5a:70:2c:bd:ce:22:1b:41:05:
                    c7:a2:82:49:b2:85:a1:56:14:38:46:27:de:cd:f4:
                    fa:13:0d:9a:80:02:14:d2:1b:47:5f:2c:c9:0c:9f:
                    70:18:e1:bf:2f:a4:2e:73:7d:ce:0e:6e:2e:11:72:
                    dd:39:1a:37:29:5c:c7:4a:7b:4a:66:47:8a:70:67:
                    52:24:a7:6b:2a:55:ba:80:da:28:b5:8b:2f:ae:48:
                    d7:8b
                Exponent: 65537 (0x10001)
        X509v3 extensions:
            X509v3 Basic Constraints: 
                CA:FALSE
            Netscape Comment: 
                OpenSSL Generated Certificate
            X509v3 Subject Key Identifier: 
                01:97:6A:CD:A4:72:D8:B4:A5:3D:A6:78:A1:63:A2:3D:BD:01:E3:22
            X509v3 Authority Key Identifier: 
                keyid:00:F2:98:4D:21:2C:00:3C:40:9B:84:F4:DE:2A:F0:26:EE:32:0E:9F

            X509v3 Subject Alternative Name: 
                DNS:localhost, IP Address:127.0.0.1
    Signature Algorithm: sha256WithRSAEncryption
         a9:41:5b:a3:4b:ac:c3:37:a4:cc:44:88:4b:db:4c:15:9c:57:
         08:c2:a7:aa:a6:85:3a:6a:5f:49:0c:aa:6c:6e:95:7f:83:9f:
         e9:b9:0e:e3:25:c9:c0:f2:31:6e:85:a2:9f:8a:45:61:a0:50:
         1e:cd:2c:52:84:5b:49:ab:c2:41:2f:e9:8b:e1:94:77:c7:91:
         ad:c2:25:05:0f:73:d8:a9:e7:c9:7b:8d:67:aa:6b:25:0a:85:
         e2:82:ad:d5:d3:e4:62:74:f0:f6:b2:1f:dc:ea:fa:99:c4:7e:
         bb:8e:fa:07:32:03:6d:29:ba:36:9c:9b:5d:2c:ab:36:d7:48:
         c7:95:96:4c:0d:25:41:7d:79:b4:5e:07:fa:4b:27:80:16:97:
         93:04:b1:eb:9e:de:61:e3:de:b6:cc:62:b1:0e:bd:53:8a:ba:
         9c:ea:79:b8:31:88:53:97:6a:64:b2:2d:a0:27:bd:b6:b2:fc:
         fe:98:5e:74:b2:62:69:95:65:7d:63:34:c0:dc:c1:80:97:16:
         63:a7:08:e0:6e:88:ce:39:c6:7a:62:dc:99:ed:72:7f:7e:96:
         ad:07:78:0c:19:b8:29:46:c6:6c:2f:c2:ef:f8:21:e0:67:80:
         28:f6:d5:6c:93:07:65:49:da:99:03:4f:36:66:88:71:b4:16:
         19:31:f1:4f:63:d5:b7:77:56:3e:1e:6d:1f:a8:2a:17:60:cd:
         61:c3:34:b0:ae:22:22:14:31:1f:0f:18:97:b1:2b:70:78:13:
         41:72:7e:cd:4d:f1:a3:17:d9:09:be:d0:09:af:d4:17:ca:5e:
         1d:7b:1d:2a:2d:c1:cb:31:36:56:26:c8:13:af:02:0f:c5:45:
         86:58:a1:f7:32:60:d1:ba:29:18:ba:17:94:8f:e4:9e:2e:3c:
         6a:98:6c:62:77:a1:b2:a1:8f:f8:c7:18:16:3c:27:fb:d2:5f:
         ed:82:0d:49:95:86:27:e3:73:3c:6d:b4:be:cb:9a:8f:32:7c:
         92:48:48:d6:72:c9:82:84:c8:24:b8:aa:fc:3c:d0:0d:c0:52:
         e6:31:b7:f7:9c:cf:70:76:3a:32:e1:07:69:ba:a5:f3:b6:56:
         ec:55:6c:1d:d1:b8:d7:42:f6:c0:07:87:66:d5:1d:90:81:7d:
         f9:0f:67:ac:51:8d:bc:f9:62:ed:85:4e:cb:23:a8:06:65:51:
         01:27:2a:73:80:08:ce:e2:cf:f3:d0:d1:47:a7:89:a0:26:24:
         4b:2e:19:2a:3a:7c:5a:fc:b4:21:01:e8:d7:75:15:ed:8e:48:
         33:49:ac:7e:ee:66:b2:06:24:2a:77:70:e7:fb:a5:21:8d:57:
         27:de:8f:f4:d4:4f:7a:2d
-----BEGIN CERTIFICATE-----
MIIFMTCCAxmgAwIBAgICEAAwDQYJKoZIhvcNAQELBQAwgZMxCzAJBgNVBAYTAlVT
MQswCQYDVQQIEwJNQTESMBAGA1UEBxMJV2FrZWZpZWxkMScwJQYDVQQKEx5UaGUg
QXBhY2hlIFNvZnR3YXJlIEZvdW5kYXRpb24xGjAYBgNVBAsTEUFwYWNoZSBUb21j
YXQgUE1DMR4wHAYDVQQDExVBcGFjaGUgVG9tY2F0IFRlc3QgQ0EwHhcNMTcwODA4
MTA0MTA1WhcNMTkwODA4MTA0MTA1WjCBhzELMAkGA1UEBhMCVVMxCzAJBgNVBAgT
Ak1BMRIwEAYDVQQHEwlXYWtlZmllbGQxJzAlBgNVBAoTHlRoZSBBcGFjaGUgU29m
dHdhcmUgRm91bmRhdGlvbjEaMBgGA1UECxMRQXBhY2hlIFRvbWNhdCBQTUMxEjAQ
BgNVBAMTCWxvY2FsaG9zdDCCASIwDQYJKoZIhvcNAQEBBQADggEPADCCAQoCggEB
AKgaj3hYJEOdkOHy1WVdYZ0PqAggLIJ1i7DOlrpbmdNrovhUkm0HzLNmhIqLXxzI
U+uiw1SMztCn/xHa6HiiB+rtWduXdiX3wOhtQwf8/hwigopaXGOCjvtTm0ZHgTSV
eXUVCo3E2NiE3zBT0G5ALLo74qFETUPez7CeRKEAJo/KOVcUMKdtmszkJLBEHCjT
wzPB5/cKKmAYYO002F+Goc7H/sxWsGgYRtKgWnAsvc4iG0EFx6KCSbKFoVYUOEYn
3s30+hMNmoACFNIbR18syQyfcBjhvy+kLnN9zg5uLhFy3TkaNylcx0p7SmZHinBn
UiSnaypVuoDaKLWLL65I14sCAwEAAaOBmDCBlTAJBgNVHRMEAjAAMCwGCWCGSAGG
+EIBDQQfFh1PcGVuU1NMIEdlbmVyYXRlZCBDZXJ0aWZpY2F0ZTAdBgNVHQ4EFgQU
AZdqzaRy2LSlPaZ4oWOiPb0B4yIwHwYDVR0jBBgwFoAUAPKYTSEsADxAm4T03irw
Ju4yDp8wGgYDVR0RBBMwEYIJbG9jYWxob3N0hwR/AAABMA0GCSqGSIb3DQEBCwUA
A4ICAQCpQVujS6zDN6TMRIhL20wVnFcIwqeqpoU6al9JDKpsbpV/g5/puQ7jJcnA
8jFuhaKfikVhoFAezSxShFtJq8JBL+mL4ZR3x5GtwiUFD3PYqefJe41nqmslCoXi
gq3V0+RidPD2sh/c6vqZxH67jvoHMgNtKbo2nJtdLKs210jHlZZMDSVBfXm0Xgf6
SyeAFpeTBLHrnt5h4962zGKxDr1Tirqc6nm4MYhTl2pksi2gJ722svz+mF50smJp
lWV9YzTA3MGAlxZjpwjgbojOOcZ6YtyZ7XJ/fpatB3gMGbgpRsZsL8Lv+CHgZ4Ao
9tVskwdlSdqZA082ZohxtBYZMfFPY9W3d1Y+Hm0fqCoXYM1hwzSwriIiFDEfDxiX
sStweBNBcn7NTfGjF9kJvtAJr9QXyl4dex0qLcHLMTZWJsgTrwIPxUWGWKH3MmDR
uikYuheUj+SeLjxqmGxid6GyoY/4xxgWPCf70l/tgg1JlYYn43M8bbS+y5qPMnyS
SEjWcsmChMgkuKr8PNANwFLmMbf3nM9wdjoy4QdpuqXztlbsVWwd0bjXQvbAB4dm
1R2QgX35D2esUY28+WLthU7LI6gGZVEBJypzgAjO4s/z0NFHp4mgJiRLLhkqOnxa
/LQhAejXdRXtjkgzSax+7mayBiQqd3Dn+6UhjVcn3o/01E96LQ==
-----END CERTIFICATE-----
