Certificate:
    Data:
        Version: 3 (0x2)
        Serial Number: 4112 (0x1010)
        Signature Algorithm: sha256WithRSAEncryption
        Issuer: C=US, ST=MA, L=Wakefield, O=The Apache Software Foundation, OU=Apache Tomcat PMC, CN=Apache Tomcat Test CA
        Validity
            Not Before: Feb 16 17:53:36 2025 GMT
            Not After : Feb 16 17:53:36 2027 GMT
        Subject: C=US, ST=DE, L=Wilmington, O=The Apache Software Foundation, OU=Apache Tomcat PMC, CN=localhost
        Subject Public Key Info:
            Public Key Algorithm: rsaEncryption
                Public-Key: (2048 bit)
                Modulus:
                    00:c0:40:4c:7d:58:4b:93:4a:0c:4d:ba:59:cc:50:
                    a1:99:c1:ce:e3:3e:c8:a2:41:b0:e8:24:92:92:d4:
                    f6:c1:31:d9:d6:41:c0:fa:de:d0:2e:59:09:75:a9:
                    c3:3b:d4:56:d3:4f:79:a3:30:df:71:15:cd:d8:a7:
                    03:d6:be:fb:49:b0:cc:69:75:c4:b9:fb:a2:de:2e:
                    da:30:db:72:27:1c:f9:96:e1:9f:bd:13:39:8f:da:
                    a3:12:95:c7:a1:67:3e:4c:14:8c:98:03:6a:86:18:
                    8b:3a:d5:4e:09:77:7d:c1:be:6a:53:75:cc:c8:0f:
                    35:fc:4d:fd:40:63:a3:e4:10:0b:77:d9:b3:82:1b:
                    30:4c:35:02:9e:41:dc:8f:b5:70:a6:d7:be:75:1e:
                    57:a7:26:14:33:5a:e7:17:68:98:27:10:a6:9c:0c:
                    17:81:6b:d1:15:36:44:01:95:f8:91:38:9c:6d:d0:
                    97:45:0d:02:3c:c3:18:20:8d:a6:2a:e7:e0:df:8d:
                    c1:81:81:71:bb:89:b2:b6:02:87:51:2c:7a:ca:9f:
                    c9:ec:ab:e0:01:26:0c:dc:38:bd:17:be:2d:fe:48:
                    4c:7f:9c:42:1a:38:a0:39:60:5c:38:65:54:d4:71:
                    ab:d3:a6:d0:c9:a2:a3:3c:0f:59:09:8d:8b:57:dc:
                    2b:05
                Exponent: 65537 (0x10001)
        X509v3 extensions:
            X509v3 Basic Constraints: 
                CA:FALSE
            Netscape Comment: 
                OpenSSL Generated Certificate
            X509v3 Subject Key Identifier: 
                BE:46:EA:26:EA:2A:17:93:67:DD:17:0B:57:8D:ED:A0:30:14:00:B2
            X509v3 Authority Key Identifier: 
                00:F2:98:4D:21:2C:00:3C:40:9B:84:F4:DE:2A:F0:26:EE:32:0E:9F
            X509v3 Subject Alternative Name: 
                DNS:localhost, IP Address:127.0.0.1
    Signature Algorithm: sha256WithRSAEncryption
    Signature Value:
        90:9b:b3:66:a4:42:07:c2:68:05:aa:f3:a2:c9:66:35:45:42:
        b4:be:40:c7:90:34:71:b4:cf:79:fd:74:f7:4b:46:3f:f3:da:
        81:3b:55:c3:62:7f:79:12:12:7f:b2:8d:72:55:d8:85:97:cf:
        54:44:0e:9f:22:02:57:98:e9:02:a8:c7:6d:45:3e:b7:f6:7c:
        56:58:a1:1b:0b:fa:a7:4c:57:66:92:3a:92:bd:f4:27:c6:5c:
        af:06:3b:d8:be:e9:b7:9a:d3:85:ae:9f:da:5f:59:05:bf:12:
        c9:13:49:75:25:1e:76:2d:c9:b7:c1:55:76:25:30:db:48:f4:
        c9:c4:cb:a4:dc:b6:df:13:1c:c1:44:2b:67:14:15:da:53:56:
        18:e8:86:5a:75:89:96:a5:88:72:47:36:b5:0b:9c:51:13:50:
        c4:93:1c:a1:2b:d0:d8:0c:c7:f6:c5:30:88:93:6c:02:ff:6e:
        fe:92:ce:60:4b:17:27:e7:67:9a:d0:27:ae:4e:94:86:2a:ad:
        99:3b:2e:6f:99:a5:d0:a1:a8:e8:3f:d1:c2:b6:1c:1a:f8:dc:
        96:49:3b:79:be:c0:f8:3b:6a:93:d9:08:1e:3a:a9:36:0b:a1:
        64:df:eb:fa:14:34:9b:73:25:49:29:25:e0:39:aa:49:0f:2d:
        4b:ec:40:19:f7:44:00:47:7b:41:72:e8:5f:06:31:31:74:ca:
        7b:98:e7:63:f8:19:ac:7e:5d:1f:5a:b4:22:d8:73:88:27:70:
        f4:18:5d:10:a9:52:6c:e3:e1:35:b0:4e:e3:91:79:63:49:86:
        86:19:98:c4:9a:46:a8:bd:dd:5f:6a:8e:14:75:9e:e1:35:6b:
        ad:ab:83:8c:31:b6:cb:c2:cc:a5:86:4f:d9:e7:9a:cb:d6:a6:
        f5:ee:a9:8e:85:a1:85:54:3a:f6:f3:0e:b9:9f:e2:bc:5d:e5:
        eb:42:75:f1:3f:e1:a6:50:09:cc:a6:d3:c5:34:40:55:84:66:
        61:60:99:f0:ea:f7:56:0b:fe:c7:b2:d2:ed:68:dc:0b:35:2f:
        79:bf:f6:0a:af:2f:eb:25:8a:f2:9a:c7:72:00:04:ad:99:21:
        08:14:b6:e4:12:f8:d0:c4:a3:55:c8:c7:ec:4f:e4:fb:4a:3e:
        14:e4:56:cf:f8:a5:e1:b2:b2:50:8b:83:ce:fc:13:68:45:55:
        f6:1c:bc:e5:fe:f2:f2:51:0d:b7:9e:49:f2:19:3e:10:59:a3:
        dd:e0:72:ab:75:25:a0:0e:3c:b1:b9:17:ad:7e:46:9c:37:f1:
        2a:19:be:91:54:2d:ab:3e:13:54:4c:aa:d6:05:56:b9:f6:3e:
        19:61:cb:b3:c8:95:25:ad
-----BEGIN CERTIFICATE-----
MIIFMjCCAxqgAwIBAgICEBAwDQYJKoZIhvcNAQELBQAwgZMxCzAJBgNVBAYTAlVT
MQswCQYDVQQIEwJNQTESMBAGA1UEBxMJV2FrZWZpZWxkMScwJQYDVQQKEx5UaGUg
QXBhY2hlIFNvZnR3YXJlIEZvdW5kYXRpb24xGjAYBgNVBAsTEUFwYWNoZSBUb21j
YXQgUE1DMR4wHAYDVQQDExVBcGFjaGUgVG9tY2F0IFRlc3QgQ0EwHhcNMjUwMjE2
MTc1MzM2WhcNMjcwMjE2MTc1MzM2WjCBiDELMAkGA1UEBhMCVVMxCzAJBgNVBAgT
AkRFMRMwEQYDVQQHEwpXaWxtaW5ndG9uMScwJQYDVQQKEx5UaGUgQXBhY2hlIFNv
ZnR3YXJlIEZvdW5kYXRpb24xGjAYBgNVBAsTEUFwYWNoZSBUb21jYXQgUE1DMRIw
EAYDVQQDEwlsb2NhbGhvc3QwggEiMA0GCSqGSIb3DQEBAQUAA4IBDwAwggEKAoIB
AQDAQEx9WEuTSgxNulnMUKGZwc7jPsiiQbDoJJKS1PbBMdnWQcD63tAuWQl1qcM7
1FbTT3mjMN9xFc3YpwPWvvtJsMxpdcS5+6LeLtow23InHPmW4Z+9EzmP2qMSlceh
Zz5MFIyYA2qGGIs61U4Jd33BvmpTdczIDzX8Tf1AY6PkEAt32bOCGzBMNQKeQdyP
tXCm1751HlenJhQzWucXaJgnEKacDBeBa9EVNkQBlfiROJxt0JdFDQI8wxggjaYq
5+DfjcGBgXG7ibK2AodRLHrKn8nsq+ABJgzcOL0Xvi3+SEx/nEIaOKA5YFw4ZVTU
cavTptDJoqM8D1kJjYtX3CsFAgMBAAGjgZgwgZUwCQYDVR0TBAIwADAsBglghkgB
hvhCAQ0EHxYdT3BlblNTTCBHZW5lcmF0ZWQgQ2VydGlmaWNhdGUwHQYDVR0OBBYE
FL5G6ibqKheTZ90XC1eN7aAwFACyMB8GA1UdIwQYMBaAFADymE0hLAA8QJuE9N4q
8CbuMg6fMBoGA1UdEQQTMBGCCWxvY2FsaG9zdIcEfwAAATANBgkqhkiG9w0BAQsF
AAOCAgEAkJuzZqRCB8JoBarzoslmNUVCtL5Ax5A0cbTPef1090tGP/PagTtVw2J/
eRISf7KNclXYhZfPVEQOnyICV5jpAqjHbUU+t/Z8VlihGwv6p0xXZpI6kr30J8Zc
rwY72L7pt5rTha6f2l9ZBb8SyRNJdSUedi3Jt8FVdiUw20j0ycTLpNy23xMcwUQr
ZxQV2lNWGOiGWnWJlqWIckc2tQucURNQxJMcoSvQ2AzH9sUwiJNsAv9u/pLOYEsX
J+dnmtAnrk6UhiqtmTsub5ml0KGo6D/RwrYcGvjclkk7eb7A+Dtqk9kIHjqpNguh
ZN/r+hQ0m3MlSSkl4DmqSQ8tS+xAGfdEAEd7QXLoXwYxMXTKe5jnY/gZrH5dH1q0
IthziCdw9BhdEKlSbOPhNbBO45F5Y0mGhhmYxJpGqL3dX2qOFHWe4TVrrauDjDG2
y8LMpYZP2eeay9am9e6pjoWhhVQ69vMOuZ/ivF3l60J18T/hplAJzKbTxTRAVYRm
YWCZ8Or3Vgv+x7LS7WjcCzUveb/2Cq8v6yWK8prHcgAErZkhCBS25BL40MSjVcjH
7E/k+0o+FORWz/il4bKyUIuDzvwTaEVV9hy85f7y8lENt55J8hk+EFmj3eByq3Ul
oA48sbkXrX5GnDfxKhm+kVQtqz4TVEyq1gVWufY+GWHLs8iVJa0=
-----END CERTIFICATE-----
