Certificate:
    Data:
        Version: 3 (0x2)
        Serial Number: 4102 (0x1006)
    Signature Algorithm: sha1WithRSAEncryption
        Issuer: C=US, CN=ca-test.tomcat.apache.org
        Validity
            Not Before: Feb 28 16:57:14 2015 GMT
            Not After : Feb 27 16:57:14 2017 GMT
        Subject: C=US, CN=localhost
        Subject Public Key Info:
            Public Key Algorithm: rsaEncryption
                Public-Key: (2048 bit)
                Modulus:
                    00:e7:6f:79:3f:18:87:91:dd:27:98:34:24:79:58:
                    47:f9:c2:69:2b:d8:5b:c0:e0:bb:4a:57:d6:00:b5:
                    bb:6a:b0:66:84:5c:b8:f0:12:0a:27:27:32:9c:82:
                    2a:2f:0f:69:77:a6:e9:0d:df:64:31:51:c0:41:1e:
                    dc:d4:74:51:9c:a3:b8:51:13:58:73:ee:21:9c:f9:
                    63:82:1b:c2:2c:49:c3:09:70:ff:a9:f3:af:a2:0c:
                    0b:60:2f:6a:db:a5:01:45:3e:34:90:8e:67:69:eb:
                    45:f3:34:29:85:db:39:8a:99:c2:0f:72:15:21:fd:
                    54:35:a6:7b:a7:30:cb:1e:4d:3d:32:24:c6:4b:84:
                    4f:5f:60:ff:64:5e:68:ca:d8:fa:de:98:7d:40:04:
                    60:b7:ae:50:ec:c8:8c:ae:dd:94:81:41:18:5b:03:
                    63:0f:2b:02:63:0a:95:6a:ed:7e:68:e6:b6:d5:56:
                    e9:4e:60:ea:1d:95:58:33:be:a2:12:55:cb:7f:9c:
                    c4:97:0b:db:c0:94:09:2a:b3:9f:e1:6b:78:0d:63:
                    1a:41:d5:6b:db:d8:48:59:04:88:d1:11:d5:e7:45:
                    28:0e:7c:1b:78:75:20:7d:ff:7f:e1:d6:ea:e4:c5:
                    51:77:41:42:30:4b:ff:29:33:3d:89:58:94:69:5b:
                    70:27
                Exponent: 65537 (0x10001)
        X509v3 extensions:
            X509v3 Basic Constraints: 
                CA:FALSE
            Netscape Comment: 
                OpenSSL Generated Certificate
            X509v3 Subject Key Identifier: 
                30:DB:AB:70:94:34:CA:FD:75:46:AB:CE:E2:4A:A9:9E:74:BC:69:BB
            X509v3 Authority Key Identifier: 
                keyid:B0:3B:BC:C9:FA:28:5F:3E:04:1F:9B:6C:C7:8B:68:D8:01:B0:F8:3D

    Signature Algorithm: sha1WithRSAEncryption
         ac:e9:89:a0:fd:83:a7:aa:39:0b:08:f2:89:bc:64:e4:fa:3f:
         7d:7a:5e:6d:79:98:34:31:19:ec:fb:e3:07:2b:ff:ab:2f:58:
         7f:49:33:ca:d1:bb:36:9c:bd:3d:e2:3b:39:e9:a9:c2:b7:9e:
         58:7d:5c:f4:9f:02:80:0b:e2:e2:d8:b8:3a:c0:76:c7:3b:33:
         29:2a:61:02:ac:e0:23:aa:3e:a7:0d:0a:e9:8b:2d:4d:2a:ed:
         59:0c:05:2d:40:86:ed:63:ad:fd:3c:a0:5e:4e:77:a6:f5:fe:
         16:19:e5:bf:66:2f:c0:a3:21:25:65:a8:30:0b:25:9e:b4:67:
         ad:9d:7a:33:c2:c7:c0:18:80:ef:f0:ea:1f:33:6b:f5:d6:b6:
         7c:47:8d:99:b5:be:77:cd:61:ba:27:11:a0:8e:19:0f:8b:2d:
         3d:70:ac:44:b3:f7:f5:a1:a7:a9:36:93:89:e4:63:cc:89:50:
         ea:cc:c0:5a:c1:a7:41:7b:2f:64:c3:1e:e2:7f:62:72:3a:a1:
         d5:9f:8d:83:bf:f4:10:5f:3b:e3:48:fd:2c:7c:55:7f:81:e2:
         e3:2f:95:53:67:20:40:97:2a:cf:cf:f2:e0:13:0d:02:fe:9f:
         43:93:01:55:22:5b:d9:b6:fd:a6:55:6c:c8:68:dc:3c:73:e7:
         29:14:78:29
-----BEGIN CERTIFICATE-----
MIIDSTCCAjGgAwIBAgICEAYwDQYJKoZIhvcNAQEFBQAwMTELMAkGA1UEBhMCVVMx
IjAgBgNVBAMTGWNhLXRlc3QudG9tY2F0LmFwYWNoZS5vcmcwHhcNMTUwMjI4MTY1
NzE0WhcNMTcwMjI3MTY1NzE0WjAhMQswCQYDVQQGEwJVUzESMBAGA1UEAxMJbG9j
YWxob3N0MIIBIjANBgkqhkiG9w0BAQEFAAOCAQ8AMIIBCgKCAQEA5295PxiHkd0n
mDQkeVhH+cJpK9hbwOC7SlfWALW7arBmhFy48BIKJycynIIqLw9pd6bpDd9kMVHA
QR7c1HRRnKO4URNYc+4hnPljghvCLEnDCXD/qfOvogwLYC9q26UBRT40kI5naetF
8zQphds5ipnCD3IVIf1UNaZ7pzDLHk09MiTGS4RPX2D/ZF5oytj63ph9QARgt65Q
7MiMrt2UgUEYWwNjDysCYwqVau1+aOa21VbpTmDqHZVYM76iElXLf5zElwvbwJQJ
KrOf4Wt4DWMaQdVr29hIWQSI0RHV50UoDnwbeHUgff9/4dbq5MVRd0FCMEv/KTM9
iViUaVtwJwIDAQABo3sweTAJBgNVHRMEAjAAMCwGCWCGSAGG+EIBDQQfFh1PcGVu
U1NMIEdlbmVyYXRlZCBDZXJ0aWZpY2F0ZTAdBgNVHQ4EFgQUMNurcJQ0yv11RqvO
4kqpnnS8abswHwYDVR0jBBgwFoAUsDu8yfooXz4EH5tsx4to2AGw+D0wDQYJKoZI
hvcNAQEFBQADggEBAKzpiaD9g6eqOQsI8om8ZOT6P316Xm15mDQxGez74wcr/6sv
WH9JM8rRuzacvT3iOznpqcK3nlh9XPSfAoAL4uLYuDrAdsc7MykqYQKs4COqPqcN
CumLLU0q7VkMBS1Ahu1jrf08oF5Od6b1/hYZ5b9mL8CjISVlqDALJZ60Z62dejPC
x8AYgO/w6h8za/XWtnxHjZm1vnfNYbonEaCOGQ+LLT1wrESz9/Whp6k2k4nkY8yJ
UOrMwFrBp0F7L2TDHuJ/YnI6odWfjYO/9BBfO+NI/Sx8VX+B4uMvlVNnIECXKs/P
8uATDQL+n0OTAVUiW9m2/aZVbMho3Dxz5ykUeCk=
-----END CERTIFICATE-----
