Certificate:
    Data:
        Version: 3 (0x2)
        Serial Number: 4100 (0x1004)
        Signature Algorithm: sha256WithRSAEncryption
        Issuer: C=US, ST=DE, L=Wilmington, O=The Apache Software Foundation, OU=Apache Tomcat PMC, CN=Apache Tomcat Test CA
        Validity
            Not Before: Dec  5 19:15:40 2025 GMT
            Not After : Dec  5 19:15:40 2027 GMT
        Subject: C=US, ST=DE, L=Wilmington, O=The Apache Software Foundation, OU=Apache Tomcat PMC, CN=localhost
        Subject Public Key Info:
            Public Key Algorithm: id-ecPublicKey
                Public-Key: (256 bit)
                pub:
                    04:4a:67:a8:52:9a:a4:a8:54:e0:0a:26:01:7b:c8:
                    20:fc:99:99:09:b9:ce:a4:11:bd:99:0f:9d:73:b3:
                    82:ef:9f:a9:73:31:bf:e5:f2:10:b2:b4:91:82:e1:
                    d5:9e:91:4b:e4:f2:ce:87:e1:a6:ee:6b:b5:68:39:
                    c0:c0:9a:e7:5d
                ASN1 OID: prime256v1
                NIST CURVE: P-256
        X509v3 extensions:
            X509v3 Basic Constraints: 
                CA:FALSE
            Netscape Comment: 
                OpenSSL Generated Certificate
            X509v3 Subject Key Identifier: 
                AD:35:5C:21:09:CA:97:51:8F:CC:F2:33:B0:86:80:DF:73:4F:FD:73
            X509v3 Authority Key Identifier: 
                AC:87:DC:8B:3D:8A:DB:89:48:7E:6F:3B:1C:C6:70:92:09:17:6F:F9
            Authority Information Access: 
                OCSP - URI:http://127.0.0.1:8888
    Signature Algorithm: sha256WithRSAEncryption
    Signature Value:
        9a:74:81:f5:9d:87:bc:47:ea:33:a9:ef:d4:6b:6a:de:77:4e:
        fc:41:c4:44:e7:ca:02:63:8b:a6:4f:b3:ed:14:44:8d:3f:29:
        3b:ee:2f:30:2b:31:bc:2f:88:64:ce:e7:4e:77:d7:d2:94:c6:
        31:98:ea:b8:c3:0c:23:e9:cd:00:99:2f:bd:41:bb:49:5d:ae:
        f0:65:c7:b8:1b:c3:07:58:ea:ed:0e:ff:22:be:7b:0a:77:15:
        62:49:e0:7c:39:6a:9d:02:7d:b3:6d:94:eb:14:e6:75:1f:8a:
        40:cd:88:13:bd:42:03:49:18:ae:11:43:d5:f1:98:c5:a0:87:
        18:33:ae:84:c6:65:8f:61:89:be:54:d9:52:02:80:59:30:42:
        df:02:d0:e5:44:9c:f5:36:28:3b:26:5c:a3:28:89:d2:b9:a3:
        c7:2a:99:d3:86:b5:fd:13:6d:d7:f9:5d:7e:88:35:af:19:9e:
        4e:9c:8b:48:92:15:62:47:c7:c4:1e:25:4e:d5:8b:96:1f:7e:
        cc:55:10:5f:82:1e:3f:b7:c7:ba:00:38:59:55:53:59:3c:f9:
        0b:2a:ab:d4:bf:0e:84:2b:71:61:be:14:4d:12:c1:8d:ab:8b:
        14:d7:af:b2:b4:6a:7e:b6:23:64:a2:7b:11:6b:ec:6b:1a:64:
        ea:49:f0:a7:9f:d0:c9:47:71:fa:01:8a:3b:be:b9:6d:4a:d9:
        58:25:1a:a8:f6:88:35:e5:d4:98:53:48:62:f9:24:db:87:21:
        bb:67:5f:b7:d1:60:0f:34:f5:63:f9:52:fd:f1:33:cb:5f:79:
        16:c8:e5:e4:c1:79:0c:d9:76:b4:44:56:ff:e7:86:a5:9f:dd:
        72:c6:15:4f:ed:6e:2d:1a:54:61:b3:5c:c7:26:10:98:9f:7e:
        77:0b:80:4c:a9:d7:bd:28:4c:3c:3b:05:67:e1:af:6d:1b:26:
        d5:24:96:5f:01:69:84:37:1e:f2:30:3e:9d:e9:8a:fd:0f:28:
        56:87:d1:28:8f:32:5d:c9:96:f0:ec:14:b1:34:b9:0d:63:16:
        1b:26:e5:76:33:12:fe:52:f5:49:17:2d:14:06:fc:3f:4e:81:
        b2:02:7d:e7:16:ae:62:d2:0f:1c:df:a1:50:a3:ff:3e:69:d5:
        7f:e7:c4:e7:6a:b8:93:b2:d8:99:9b:72:30:e9:e0:62:d6:c3:
        c1:39:a0:1b:30:37:63:6e:b0:0f:47:20:71:8a:20:56:2f:2d:
        a6:54:35:ee:72:38:fc:e2:bb:67:60:4f:f7:b8:79:cb:57:6e:
        f3:7c:b3:55:03:01:41:29:48:ca:f6:a9:3a:4a:6a:26:cb:f7:
        21:54:fa:70:31:3d:95:d0
-----BEGIN CERTIFICATE-----
MIIEfzCCAmegAwIBAgICEAQwDQYJKoZIhvcNAQELBQAwgZQxCzAJBgNVBAYTAlVT
MQswCQYDVQQIEwJERTETMBEGA1UEBxMKV2lsbWluZ3RvbjEnMCUGA1UEChMeVGhl
IEFwYWNoZSBTb2Z0d2FyZSBGb3VuZGF0aW9uMRowGAYDVQQLExFBcGFjaGUgVG9t
Y2F0IFBNQzEeMBwGA1UEAxMVQXBhY2hlIFRvbWNhdCBUZXN0IENBMB4XDTI1MTIw
NTE5MTU0MFoXDTI3MTIwNTE5MTU0MFowgYgxCzAJBgNVBAYTAlVTMQswCQYDVQQI
DAJERTETMBEGA1UEBwwKV2lsbWluZ3RvbjEnMCUGA1UECgweVGhlIEFwYWNoZSBT
b2Z0d2FyZSBGb3VuZGF0aW9uMRowGAYDVQQLDBFBcGFjaGUgVG9tY2F0IFBNQzES
MBAGA1UEAwwJbG9jYWxob3N0MFkwEwYHKoZIzj0CAQYIKoZIzj0DAQcDQgAESmeo
UpqkqFTgCiYBe8gg/JmZCbnOpBG9mQ+dc7OC75+pczG/5fIQsrSRguHVnpFL5PLO
h+Gm7mu1aDnAwJrnXaOBrzCBrDAJBgNVHRMEAjAAMCwGCWCGSAGG+EIBDQQfFh1P
cGVuU1NMIEdlbmVyYXRlZCBDZXJ0aWZpY2F0ZTAdBgNVHQ4EFgQUrTVcIQnKl1GP
zPIzsIaA33NP/XMwHwYDVR0jBBgwFoAUrIfciz2K24lIfm87HMZwkgkXb/kwMQYI
KwYBBQUHAQEEJTAjMCEGCCsGAQUFBzABhhVodHRwOi8vMTI3LjAuMC4xOjg4ODgw
DQYJKoZIhvcNAQELBQADggIBAJp0gfWdh7xH6jOp79Rrat53TvxBxETnygJji6ZP
s+0URI0/KTvuLzArMbwviGTO505319KUxjGY6rjDDCPpzQCZL71Bu0ldrvBlx7gb
wwdY6u0O/yK+ewp3FWJJ4Hw5ap0CfbNtlOsU5nUfikDNiBO9QgNJGK4RQ9XxmMWg
hxgzroTGZY9hib5U2VICgFkwQt8C0OVEnPU2KDsmXKMoidK5o8cqmdOGtf0Tbdf5
XX6INa8Znk6ci0iSFWJHx8QeJU7Vi5YffsxVEF+CHj+3x7oAOFlVU1k8+Qsqq9S/
DoQrcWG+FE0SwY2rixTXr7K0an62I2SiexFr7GsaZOpJ8Kef0MlHcfoBiju+uW1K
2VglGqj2iDXl1JhTSGL5JNuHIbtnX7fRYA809WP5Uv3xM8tfeRbI5eTBeQzZdrRE
Vv/nhqWf3XLGFU/tbi0aVGGzXMcmEJiffncLgEyp170oTDw7BWfhr20bJtUkll8B
aYQ3HvIwPp3piv0PKFaH0SiPMl3JlvDsFLE0uQ1jFhsm5XYzEv5S9UkXLRQG/D9O
gbICfecWrmLSDxzfoVCj/z5p1X/nxOdquJOy2JmbcjDp4GLWw8E5oBswN2NusA9H
IHGKIFYvLaZUNe5yOPziu2dgT/e4ectXbvN8s1UDAUEpSMr2qTpKaibL9yFU+nAx
PZXQ
-----END CERTIFICATE-----
