Certificate:
    Data:
        Version: 3 (0x2)
        Serial Number: 4105 (0x1009)
        Signature Algorithm: sha256WithRSAEncryption
        Issuer: C=US, ST=MA, L=Wakefield, O=The Apache Software Foundation, OU=Apache Tomcat PMC, CN=Apache Tomcat Test CA
        Validity
            Not Before: Feb 17 14:28:35 2021 GMT
            Not After : Feb 17 14:28:35 2023 GMT
        Subject: C=US, ST=DE, L=Wilmington, O=The Apache Software Foundation, OU=Apache Tomcat PMC, CN=localhost
        Subject Public Key Info:
            Public Key Algorithm: rsaEncryption
                RSA Public-Key: (2048 bit)
                Modulus:
                    00:96:38:b8:2a:ba:3b:f8:2c:65:74:96:50:fd:45:
                    ae:4a:93:a7:69:80:7a:c5:1f:2e:26:0e:07:58:77:
                    95:b1:c7:e1:8c:6f:02:6b:3a:e1:bb:14:63:01:52:
                    74:c8:39:ad:8e:84:43:16:12:93:de:c1:5a:04:fb:
                    c4:65:0d:d1:fd:b2:3e:fd:2a:e2:6f:3c:03:79:61:
                    ec:62:ff:34:14:2b:fa:d5:6f:97:2b:98:17:4e:31:
                    8e:7d:d2:46:1f:5d:6d:6b:39:d8:cb:f0:31:05:28:
                    1d:6a:4d:67:9a:17:a8:a0:09:7f:1b:3d:b9:99:1d:
                    2d:50:52:72:b3:69:73:04:5a:04:af:19:af:77:39:
                    7f:10:4b:6b:92:ff:aa:01:14:08:0a:97:bf:9f:21:
                    db:07:62:0d:04:23:dc:18:b7:72:14:ec:4a:8b:c5:
                    e6:80:25:a1:2c:97:b4:4d:df:79:79:44:b4:18:ce:
                    88:92:ab:ac:15:c2:f6:3f:47:ff:56:09:8f:82:15:
                    b0:5a:14:76:92:98:54:96:97:3b:20:ff:a6:a9:cf:
                    da:2d:f6:0e:a3:3c:b4:92:2a:7b:b6:3d:0e:18:6f:
                    39:f5:72:4d:c3:c6:e3:44:3a:0b:e7:a5:82:c8:31:
                    aa:36:1f:13:ec:4b:7b:cf:79:fd:2a:05:e4:46:5e:
                    2c:17
                Exponent: 65537 (0x10001)
        X509v3 extensions:
            X509v3 Basic Constraints: 
                CA:FALSE
            Netscape Comment: 
                OpenSSL Generated Certificate
            X509v3 Subject Key Identifier: 
                CD:35:CB:AD:62:91:65:C4:C5:46:C8:C3:0A:C7:D3:57:43:46:E8:FD
            X509v3 Authority Key Identifier: 
                keyid:00:F2:98:4D:21:2C:00:3C:40:9B:84:F4:DE:2A:F0:26:EE:32:0E:9F

            X509v3 Subject Alternative Name: 
                DNS:localhost, IP Address:127.0.0.1
    Signature Algorithm: sha256WithRSAEncryption
         70:45:e7:c9:6b:6c:22:26:f3:39:06:0c:8b:11:13:0b:b1:48:
         46:2c:1f:61:b3:e8:36:3b:ea:ac:e8:b0:28:46:fa:b6:37:14:
         91:91:4c:6c:7d:fc:c0:4d:c7:7c:a4:3e:1c:6e:1b:a7:ab:8d:
         a8:c3:97:e1:67:ee:01:98:56:29:08:f9:1a:35:97:5a:a7:49:
         fb:68:3d:e5:32:a1:4b:b4:9c:f3:a7:c7:89:c5:49:8f:b6:e9:
         ae:24:e3:f0:04:b9:0e:ec:0b:0a:32:99:ae:0c:16:11:16:02:
         db:7d:68:e1:40:40:bd:58:0a:08:e5:57:ed:c9:d9:1e:cf:32:
         e4:59:af:20:f2:e5:fc:89:ac:2b:85:5a:d4:e2:58:b9:4c:9c:
         dc:96:8e:3c:f8:3f:89:8d:cb:e3:fe:79:d3:3a:6d:df:70:2f:
         b7:f3:82:69:0b:86:b6:af:5d:64:6c:71:2c:90:56:86:cd:3c:
         e0:28:5c:f8:90:91:a9:9d:22:05:c3:d6:03:a5:7a:fc:a8:33:
         0a:2c:17:30:f3:89:2c:26:cf:ac:21:91:4c:1f:93:a8:23:81:
         45:40:0f:4b:74:fe:e6:3b:47:20:1b:78:7c:61:03:c9:0b:f4:
         b5:e3:a4:55:fd:f5:3f:55:0c:22:4a:77:08:02:c2:bf:28:07:
         37:2f:e8:c9:2c:73:5c:c7:52:78:70:a4:84:14:b4:a0:be:3d:
         36:c5:9e:d3:fc:6f:4b:1a:5c:ff:1b:f8:d0:cb:7f:d7:c9:39:
         01:08:27:55:b3:9b:c8:fc:fe:95:c3:a8:89:a3:e9:70:5d:1e:
         6e:c2:8e:e7:33:dd:75:fd:e9:ff:f9:9d:a0:8b:16:e4:ee:a1:
         f1:58:65:8f:ec:58:a6:40:9d:60:6e:a8:8e:97:27:60:fa:60:
         51:2e:8e:e4:56:64:ee:87:2c:48:80:a1:dc:89:72:22:0e:58:
         79:78:d9:c4:bb:9f:93:10:6f:91:2e:d6:9f:64:e3:57:50:15:
         da:1a:be:fa:6b:3b:6f:3b:8d:fe:a1:ec:5e:8e:9a:02:1b:60:
         a3:40:57:2c:2c:f5:17:c0:da:3c:cc:a5:eb:39:c0:21:1c:bf:
         ab:23:03:c1:5b:7c:af:b5:f6:7b:1a:05:6b:e2:76:fe:b0:35:
         53:0b:44:9a:46:ce:8f:cf:88:14:20:55:ba:45:ad:19:92:e0:
         88:e0:cf:ee:f3:3c:1d:a5:dd:7c:ba:29:d5:27:20:75:5c:fc:
         eb:08:90:4f:e2:ca:e8:40:81:91:6a:62:9e:1d:d0:03:e9:53:
         2d:df:dd:6e:fb:1c:87:17:7a:65:81:15:cd:e1:c2:d7:59:55:
         68:92:f6:88:59:5b:db:8d
-----BEGIN CERTIFICATE-----
MIIFMjCCAxqgAwIBAgICEAkwDQYJKoZIhvcNAQELBQAwgZMxCzAJBgNVBAYTAlVT
MQswCQYDVQQIEwJNQTESMBAGA1UEBxMJV2FrZWZpZWxkMScwJQYDVQQKEx5UaGUg
QXBhY2hlIFNvZnR3YXJlIEZvdW5kYXRpb24xGjAYBgNVBAsTEUFwYWNoZSBUb21j
YXQgUE1DMR4wHAYDVQQDExVBcGFjaGUgVG9tY2F0IFRlc3QgQ0EwHhcNMjEwMjE3
MTQyODM1WhcNMjMwMjE3MTQyODM1WjCBiDELMAkGA1UEBhMCVVMxCzAJBgNVBAgT
AkRFMRMwEQYDVQQHEwpXaWxtaW5ndG9uMScwJQYDVQQKEx5UaGUgQXBhY2hlIFNv
ZnR3YXJlIEZvdW5kYXRpb24xGjAYBgNVBAsTEUFwYWNoZSBUb21jYXQgUE1DMRIw
EAYDVQQDEwlsb2NhbGhvc3QwggEiMA0GCSqGSIb3DQEBAQUAA4IBDwAwggEKAoIB
AQCWOLgqujv4LGV0llD9Ra5Kk6dpgHrFHy4mDgdYd5Wxx+GMbwJrOuG7FGMBUnTI
Oa2OhEMWEpPewVoE+8RlDdH9sj79KuJvPAN5Yexi/zQUK/rVb5crmBdOMY590kYf
XW1rOdjL8DEFKB1qTWeaF6igCX8bPbmZHS1QUnKzaXMEWgSvGa93OX8QS2uS/6oB
FAgKl7+fIdsHYg0EI9wYt3IU7EqLxeaAJaEsl7RN33l5RLQYzoiSq6wVwvY/R/9W
CY+CFbBaFHaSmFSWlzsg/6apz9ot9g6jPLSSKnu2PQ4Ybzn1ck3DxuNEOgvnpYLI
Mao2HxPsS3vPef0qBeRGXiwXAgMBAAGjgZgwgZUwCQYDVR0TBAIwADAsBglghkgB
hvhCAQ0EHxYdT3BlblNTTCBHZW5lcmF0ZWQgQ2VydGlmaWNhdGUwHQYDVR0OBBYE
FM01y61ikWXExUbIwwrH01dDRuj9MB8GA1UdIwQYMBaAFADymE0hLAA8QJuE9N4q
8CbuMg6fMBoGA1UdEQQTMBGCCWxvY2FsaG9zdIcEfwAAATANBgkqhkiG9w0BAQsF
AAOCAgEAcEXnyWtsIibzOQYMixETC7FIRiwfYbPoNjvqrOiwKEb6tjcUkZFMbH38
wE3HfKQ+HG4bp6uNqMOX4WfuAZhWKQj5GjWXWqdJ+2g95TKhS7Sc86fHicVJj7bp
riTj8AS5DuwLCjKZrgwWERYC231o4UBAvVgKCOVX7cnZHs8y5FmvIPLl/ImsK4Va
1OJYuUyc3JaOPPg/iY3L4/550zpt33Avt/OCaQuGtq9dZGxxLJBWhs084Chc+JCR
qZ0iBcPWA6V6/KgzCiwXMPOJLCbPrCGRTB+TqCOBRUAPS3T+5jtHIBt4fGEDyQv0
teOkVf31P1UMIkp3CALCvygHNy/oySxzXMdSeHCkhBS0oL49NsWe0/xvSxpc/xv4
0Mt/18k5AQgnVbObyPz+lcOoiaPpcF0ebsKO5zPddf3p//mdoIsW5O6h8Vhlj+xY
pkCdYG6ojpcnYPpgUS6O5FZk7ocsSICh3IlyIg5YeXjZxLufkxBvkS7Wn2TjV1AV
2hq++ms7bzuN/qHsXo6aAhtgo0BXLCz1F8DaPMyl6znAIRy/qyMDwVt8r7X2exoF
a+J2/rA1UwtEmkbOj8+IFCBVukWtGZLgiODP7vM8HaXdfLop1ScgdVz86wiQT+LK
6ECBkWpinh3QA+lTLd/dbvschxd6ZYEVzeHC11lVaJL2iFlb240=
-----END CERTIFICATE-----
