Certificate:
    Data:
        Version: 3 (0x2)
        Serial Number: 4097 (0x1001)
        Signature Algorithm: sha256WithRSAEncryption
        Issuer: C=US, ST=DE, L=Wilmington, O=The Apache Software Foundation, OU=Apache Tomcat PMC, CN=Apache Tomcat Test CA
        Validity
            Not Before: Dec  5 19:13:27 2025 GMT
            Not After : Dec  5 19:13:27 2027 GMT
        Subject: C=US, ST=DE, L=Wilmington, O=The Apache Software Foundation, OU=Apache Tomcat PMC, CN=localhost
        Subject Public Key Info:
            Public Key Algorithm: rsaEncryption
                Public-Key: (2048 bit)
                Modulus:
                    00:aa:f2:ee:01:dd:21:fd:4b:f6:1e:9f:a1:a6:65:
                    42:71:1c:db:cf:d7:47:6d:20:81:63:01:c7:6c:a2:
                    5a:2e:17:0d:5d:d9:60:78:e5:d9:2a:9a:c0:2d:1c:
                    2d:24:9d:b3:f6:26:a9:93:80:86:ad:0e:b0:06:4e:
                    64:dc:11:da:70:a0:eb:47:aa:9d:39:3e:10:1c:b5:
                    fe:bc:ca:b2:5b:b8:3f:0c:a8:d4:b3:cb:9e:dd:f5:
                    19:0e:dc:83:34:54:1d:17:b9:0d:2e:5d:4c:31:d7:
                    9b:64:e9:40:89:de:77:75:ad:6e:86:3e:46:15:88:
                    ed:48:88:bb:a2:77:a5:05:4a:33:33:3e:bb:cb:7b:
                    f7:00:9b:eb:4e:2b:f5:4a:59:07:ff:18:5a:a1:49:
                    c2:25:48:21:03:55:64:da:d7:75:0f:e8:55:a8:61:
                    39:ca:af:09:64:c2:c1:67:4b:ec:95:df:66:50:2d:
                    39:45:d6:4c:8d:07:a8:3d:d1:fc:3c:46:76:92:2f:
                    1a:b0:27:f0:0c:e8:19:2b:c6:b4:ad:62:c4:c6:21:
                    7c:23:17:c4:13:a4:0e:7d:d3:05:3b:0b:43:ab:43:
                    32:88:12:67:91:1b:01:e4:98:90:fc:67:88:d7:8b:
                    8e:6b:f0:2a:59:62:d1:dc:24:38:28:8c:b7:e9:1b:
                    7b:27
                Exponent: 65537 (0x10001)
        X509v3 extensions:
            X509v3 Basic Constraints: 
                CA:FALSE
            Netscape Comment: 
                OpenSSL Generated Certificate
            X509v3 Subject Key Identifier: 
                CB:A6:D2:18:07:CE:1A:E1:A7:F1:DC:FB:4C:A0:2C:85:AE:A5:40:A2
            X509v3 Authority Key Identifier: 
                AC:87:DC:8B:3D:8A:DB:89:48:7E:6F:3B:1C:C6:70:92:09:17:6F:F9
            Authority Information Access: 
                OCSP - URI:http://127.0.0.1:8888
            X509v3 Subject Alternative Name: 
                DNS:localhost, IP Address:127.0.0.1
    Signature Algorithm: sha256WithRSAEncryption
    Signature Value:
        11:8b:03:aa:50:38:53:88:71:66:01:2f:d5:ab:82:49:ba:4d:
        45:5a:20:b6:f7:6e:1f:ca:77:ce:f7:93:85:ec:4d:da:ba:17:
        71:dc:30:7b:7f:55:35:07:88:a2:4a:47:06:9c:8c:1b:a0:33:
        5f:46:dd:c9:c6:f5:0e:27:48:6e:1f:0b:a0:e8:17:e4:16:3b:
        d0:e3:0b:56:4f:5c:5f:b7:ae:fb:da:46:13:0b:fc:e8:3d:72:
        7e:ab:2d:19:4d:6c:09:8b:32:51:9a:7a:b8:49:70:7e:ce:ce:
        78:7f:95:9c:3a:8e:05:cc:29:af:0b:de:42:b8:cd:5e:56:a8:
        2f:78:ea:19:67:ed:a7:59:c0:ce:0a:4c:50:46:67:9a:6e:72:
        6b:fd:ae:00:a6:2f:9a:93:97:39:58:06:b4:05:a3:78:a9:b6:
        df:66:22:0d:ae:5b:fd:e8:37:78:25:ac:2e:5a:a0:65:56:3e:
        83:04:bf:98:96:30:e1:11:f9:da:3b:6a:97:c4:77:28:d6:d7:
        46:27:a4:05:67:2e:f5:b8:d4:2e:c7:00:39:49:08:9b:a7:58:
        21:48:4c:fb:8f:dd:99:69:ea:59:bc:41:96:fd:1a:29:1a:fe:
        53:16:6a:2b:ac:92:51:18:ac:85:d9:7d:d5:77:ad:60:63:98:
        47:2c:52:ec:85:ef:ad:ff:b0:58:d7:12:7b:6f:70:2b:93:2a:
        92:f8:99:3c:15:7a:26:d4:79:16:05:93:9a:f4:01:bc:e6:9b:
        a0:31:c3:d7:12:23:47:12:81:30:02:06:0c:13:ca:38:4c:63:
        96:2d:17:41:53:06:8b:c5:a3:8c:c3:96:b7:e2:b5:85:49:f7:
        cd:46:01:21:ff:4f:d1:65:be:37:1b:84:7c:79:a6:e1:a8:a8:
        d7:8c:63:34:35:45:d5:42:10:03:0f:60:fa:52:c5:39:03:26:
        b1:41:6c:b9:53:3c:cf:8d:5d:fa:02:ac:0a:7a:04:27:28:df:
        33:b2:01:69:d8:3e:72:38:57:60:d3:a8:47:5f:98:55:8c:55:
        15:36:58:6e:c7:fc:65:a5:f8:c7:7f:1a:8c:de:b7:79:21:50:
        98:76:69:8a:b3:48:b0:1d:b2:91:fd:25:8f:bd:59:17:81:22:
        bc:67:32:d5:fb:e6:c3:cd:3c:b3:79:6f:cd:1c:4a:b0:04:13:
        3c:af:80:53:7c:f0:c6:28:f3:37:3e:36:4d:65:ef:38:dc:00:
        5f:88:7e:04:34:75:66:fa:ba:6c:1f:76:b2:55:bb:21:60:fe:
        b8:48:f8:ac:cb:6e:16:2f:75:87:44:d0:c3:6d:d5:6a:e1:e6:
        b9:32:7e:39:a6:e6:d0:7f
-----BEGIN CERTIFICATE-----
MIIFZjCCA06gAwIBAgICEAEwDQYJKoZIhvcNAQELBQAwgZQxCzAJBgNVBAYTAlVT
MQswCQYDVQQIEwJERTETMBEGA1UEBxMKV2lsbWluZ3RvbjEnMCUGA1UEChMeVGhl
IEFwYWNoZSBTb2Z0d2FyZSBGb3VuZGF0aW9uMRowGAYDVQQLExFBcGFjaGUgVG9t
Y2F0IFBNQzEeMBwGA1UEAxMVQXBhY2hlIFRvbWNhdCBUZXN0IENBMB4XDTI1MTIw
NTE5MTMyN1oXDTI3MTIwNTE5MTMyN1owgYgxCzAJBgNVBAYTAlVTMQswCQYDVQQI
EwJERTETMBEGA1UEBxMKV2lsbWluZ3RvbjEnMCUGA1UEChMeVGhlIEFwYWNoZSBT
b2Z0d2FyZSBGb3VuZGF0aW9uMRowGAYDVQQLExFBcGFjaGUgVG9tY2F0IFBNQzES
MBAGA1UEAxMJbG9jYWxob3N0MIIBIjANBgkqhkiG9w0BAQEFAAOCAQ8AMIIBCgKC
AQEAqvLuAd0h/Uv2Hp+hpmVCcRzbz9dHbSCBYwHHbKJaLhcNXdlgeOXZKprALRwt
JJ2z9iapk4CGrQ6wBk5k3BHacKDrR6qdOT4QHLX+vMqyW7g/DKjUs8ue3fUZDtyD
NFQdF7kNLl1MMdebZOlAid53da1uhj5GFYjtSIi7onelBUozMz67y3v3AJvrTiv1
SlkH/xhaoUnCJUghA1Vk2td1D+hVqGE5yq8JZMLBZ0vsld9mUC05RdZMjQeoPdH8
PEZ2ki8asCfwDOgZK8a0rWLExiF8IxfEE6QOfdMFOwtDq0MyiBJnkRsB5JiQ/GeI
14uOa/AqWWLR3CQ4KIy36Rt7JwIDAQABo4HLMIHIMAkGA1UdEwQCMAAwLAYJYIZI
AYb4QgENBB8WHU9wZW5TU0wgR2VuZXJhdGVkIENlcnRpZmljYXRlMB0GA1UdDgQW
BBTLptIYB84a4afx3PtMoCyFrqVAojAfBgNVHSMEGDAWgBSsh9yLPYrbiUh+bzsc
xnCSCRdv+TAxBggrBgEFBQcBAQQlMCMwIQYIKwYBBQUHMAGGFWh0dHA6Ly8xMjcu
MC4wLjE6ODg4ODAaBgNVHREEEzARgglsb2NhbGhvc3SHBH8AAAEwDQYJKoZIhvcN
AQELBQADggIBABGLA6pQOFOIcWYBL9Wrgkm6TUVaILb3bh/Kd873k4XsTdq6F3Hc
MHt/VTUHiKJKRwacjBugM19G3cnG9Q4nSG4fC6DoF+QWO9DjC1ZPXF+3rvvaRhML
/Og9cn6rLRlNbAmLMlGaerhJcH7Oznh/lZw6jgXMKa8L3kK4zV5WqC946hln7adZ
wM4KTFBGZ5pucmv9rgCmL5qTlzlYBrQFo3iptt9mIg2uW/3oN3glrC5aoGVWPoME
v5iWMOER+do7apfEdyjW10YnpAVnLvW41C7HADlJCJunWCFITPuP3Zlp6lm8QZb9
Gika/lMWaiusklEYrIXZfdV3rWBjmEcsUuyF763/sFjXEntvcCuTKpL4mTwVeibU
eRYFk5r0Abzmm6Axw9cSI0cSgTACBgwTyjhMY5YtF0FTBovFo4zDlrfitYVJ981G
ASH/T9FlvjcbhHx5puGoqNeMYzQ1RdVCEAMPYPpSxTkDJrFBbLlTPM+NXfoCrAp6
BCco3zOyAWnYPnI4V2DTqEdfmFWMVRU2WG7H/GWl+Md/Gozet3khUJh2aYqzSLAd
spH9JY+9WReBIrxnMtX75sPNPLN5b80cSrAEEzyvgFN88MYo8zc+Nk1l7zjcAF+I
fgQ0dWb6umwfdrJVuyFg/rhI+KzLbhYvdYdE0MNt1Wrh5rkyfjmm5tB/
-----END CERTIFICATE-----
