Certificate:
    Data:
        Version: 3 (0x2)
        Serial Number: 4096 (0x1000)
        Signature Algorithm: sha1WithRSAEncryption
        Issuer: C=US, CN=ca-test.tomcat.apache.org
        Validity
            Not Before: Feb 28 23:10:55 2011 GMT
            Not After : Feb 27 23:10:55 2013 GMT
        Subject: C=US, CN=localhost
        Subject Public Key Info:
            Public Key Algorithm: rsaEncryption
            RSA Public Key: (2048 bit)
                Modulus (2048 bit):
                    00:b0:e3:8b:82:f8:b1:82:d9:b1:e8:e8:08:fd:3c:
                    8a:14:d1:cd:a1:b7:d8:f8:58:93:46:54:c2:6b:b3:
                    52:fe:ae:7f:a5:70:9e:6c:cf:1f:c7:fb:d7:c2:c2:
                    5d:0f:18:c9:66:2a:c4:8a:57:ca:0e:4d:b0:0b:af:
                    1b:26:e9:ad:dd:95:86:69:e4:ac:60:9d:b9:ae:65:
                    aa:d4:9d:3b:02:19:31:60:df:c3:3e:a5:85:cd:49:
                    01:12:84:36:4c:02:f5:9c:38:b2:20:bf:43:1d:5f:
                    0c:ae:86:5a:67:24:65:74:77:fa:f4:cd:04:9f:8c:
                    c0:f2:5e:4f:bf:db:da:ce:d2:db:a6:51:82:40:ce:
                    62:0c:9b:5e:d3:10:7b:49:d5:7a:c9:8e:bf:4b:b8:
                    e3:ac:30:ed:d8:b7:25:1c:c5:5c:0e:1e:57:7c:ad:
                    60:44:ba:65:6d:45:26:e4:08:a2:1f:c9:3a:cf:7d:
                    bc:e5:61:23:ea:3e:19:46:f0:16:f8:26:e5:32:c6:
                    69:e5:ea:18:62:2e:05:65:93:49:23:45:11:c3:da:
                    4c:3b:b4:c6:4a:72:ea:0b:e9:26:06:2c:69:4d:e7:
                    b2:a5:3d:54:ae:7f:17:d3:63:8f:d8:36:5b:46:43:
                    af:bc:c1:09:fc:98:e1:4f:be:74:68:a2:3e:d5:21:
                    31:d3
                Exponent: 65537 (0x10001)
        X509v3 extensions:
            X509v3 Basic Constraints: 
                CA:FALSE
            Netscape Comment: 
                OpenSSL Generated Certificate
            X509v3 Subject Key Identifier: 
                36:5C:54:F4:2E:91:6D:E7:BC:DD:94:C7:F8:D7:55:01:4A:F7:7D:CD
            X509v3 Authority Key Identifier: 
                keyid:B0:3B:BC:C9:FA:28:5F:3E:04:1F:9B:6C:C7:8B:68:D8:01:B0:F8:3D

    Signature Algorithm: sha1WithRSAEncryption
        30:d5:b3:07:2d:04:25:9b:f1:20:bb:91:49:dc:3d:bf:7e:1c:
        2d:09:01:87:a0:30:2b:50:fe:3b:17:34:c6:1d:fa:51:c0:b3:
        af:f5:62:a6:de:3a:bf:6c:f7:07:e6:80:26:08:d1:84:5b:a3:
        5a:0c:6a:07:de:d6:26:1d:c1:89:ed:8a:15:1d:1a:36:0c:13:
        db:ab:7c:43:35:0b:c2:c6:63:a6:43:81:ce:e5:52:28:cd:ee:
        c7:0d:3c:8e:a1:07:3b:7c:48:ff:fe:b9:1d:04:51:18:27:d1:
        fb:b4:1e:bf:36:f1:ef:a9:87:89:3b:b1:49:a9:70:62:5b:f0:
        49:e7:27:3a:cc:91:6f:08:43:a4:de:28:f2:1c:69:90:09:5d:
        bd:78:9f:25:ec:b6:4c:7a:ce:d4:3c:a1:d3:5c:3c:78:04:91:
        b3:35:56:81:64:4c:61:7b:80:ae:42:34:e1:9a:a1:33:0e:23:
        dc:76:bf:29:ca:6e:c1:ce:1a:f0:1b:a6:b5:ab:dc:be:19:e9:
        9a:e3:6f:7d:ed:a1:e7:bf:f5:23:ad:60:ce:2b:79:49:4e:73:
        7f:00:da:a6:95:af:f1:ae:e7:51:de:7f:35:70:60:5d:fb:61:
        54:34:a9:22:7a:7e:76:49:70:9f:e7:ab:f1:38:a7:a1:53:87:
        fb:61:b8:3f
-----BEGIN CERTIFICATE-----
MIIDSTCCAjGgAwIBAgICEAAwDQYJKoZIhvcNAQEFBQAwMTELMAkGA1UEBhMCVVMx
IjAgBgNVBAMTGWNhLXRlc3QudG9tY2F0LmFwYWNoZS5vcmcwHhcNMTEwMjI4MjMx
MDU1WhcNMTMwMjI3MjMxMDU1WjAhMQswCQYDVQQGEwJVUzESMBAGA1UEAxMJbG9j
YWxob3N0MIIBIjANBgkqhkiG9w0BAQEFAAOCAQ8AMIIBCgKCAQEAsOOLgvixgtmx
6OgI/TyKFNHNobfY+FiTRlTCa7NS/q5/pXCebM8fx/vXwsJdDxjJZirEilfKDk2w
C68bJumt3ZWGaeSsYJ25rmWq1J07AhkxYN/DPqWFzUkBEoQ2TAL1nDiyIL9DHV8M
roZaZyRldHf69M0En4zA8l5Pv9vaztLbplGCQM5iDJte0xB7SdV6yY6/S7jjrDDt
2LclHMVcDh5XfK1gRLplbUUm5AiiH8k6z3285WEj6j4ZRvAW+CblMsZp5eoYYi4F
ZZNJI0URw9pMO7TGSnLqC+kmBixpTeeypT1Urn8X02OP2DZbRkOvvMEJ/JjhT750
aKI+1SEx0wIDAQABo3sweTAJBgNVHRMEAjAAMCwGCWCGSAGG+EIBDQQfFh1PcGVu
U1NMIEdlbmVyYXRlZCBDZXJ0aWZpY2F0ZTAdBgNVHQ4EFgQUNlxU9C6Rbee83ZTH
+NdVAUr3fc0wHwYDVR0jBBgwFoAUsDu8yfooXz4EH5tsx4to2AGw+D0wDQYJKoZI
hvcNAQEFBQADggEBADDVswctBCWb8SC7kUncPb9+HC0JAYegMCtQ/jsXNMYd+lHA
s6/1YqbeOr9s9wfmgCYI0YRbo1oMagfe1iYdwYntihUdGjYME9urfEM1C8LGY6ZD
gc7lUijN7scNPI6hBzt8SP/+uR0EURgn0fu0Hr828e+ph4k7sUmpcGJb8EnnJzrM
kW8IQ6TeKPIcaZAJXb14nyXstkx6ztQ8odNcPHgEkbM1VoFkTGF7gK5CNOGaoTMO
I9x2vynKbsHOGvAbprWr3L4Z6Zrjb33toee/9SOtYM4reUlOc38A2qaVr/Gu51He
fzVwYF37YVQ0qSJ6fnZJcJ/nq/E4p6FTh/thuD8=
-----END CERTIFICATE-----
