Certificate:
    Data:
        Version: 3 (0x2)
        Serial Number: 4096 (0x1000)
        Signature Algorithm: sha256WithRSAEncryption
        Issuer: C=US, ST=DE, L=Wilmington, O=The Apache Software Foundation, OU=Apache Tomcat PMC, CN=Apache Tomcat Test CA
        Validity
            Not Before: Dec  5 19:13:23 2025 GMT
            Not After : Dec  5 19:13:23 2027 GMT
        Subject: C=US, ST=DE, L=Wilmington, O=The Apache Software Foundation, OU=Apache Tomcat PMC, CN=localhost
        Subject Public Key Info:
            Public Key Algorithm: rsaEncryption
                Public-Key: (2048 bit)
                Modulus:
                    00:b1:da:2e:50:5c:5b:22:db:84:61:5e:e4:9d:e1:
                    a4:24:6c:92:d3:96:5a:77:52:c8:f7:cf:16:b5:60:
                    80:a7:15:0e:12:75:1a:bc:3f:0b:54:38:96:f6:2f:
                    0a:38:6c:21:68:da:13:49:a2:7b:7c:80:c7:aa:69:
                    fe:e3:8c:b1:ce:73:e6:5b:80:e2:36:89:49:5b:03:
                    ce:76:47:bf:35:20:ee:c6:78:df:62:aa:d1:d7:bf:
                    91:b0:fc:aa:fd:7f:59:3f:8a:51:9f:7d:59:0f:e1:
                    d6:dc:7b:16:80:62:3f:6c:c2:2c:1b:a5:05:1e:40:
                    90:60:20:e1:c3:6d:3f:ff:1c:73:84:92:86:59:03:
                    e5:4a:f6:d6:dc:e6:6e:68:1f:05:5f:f7:21:a9:fc:
                    5e:e6:fc:8b:c7:36:34:18:fc:d5:70:21:54:5a:f1:
                    10:c9:24:c8:08:92:2c:91:13:54:b1:d9:59:70:80:
                    39:9f:8c:90:ad:c9:d2:b8:bd:a3:28:20:3f:67:35:
                    a2:d9:20:e2:3f:2e:be:3d:88:d2:3b:7d:3b:47:44:
                    79:53:e2:52:98:72:13:ae:a2:9d:fe:68:bd:36:8c:
                    2e:43:b1:3b:cd:50:35:3d:b5:f7:2f:43:ea:1e:c9:
                    d1:10:ac:e8:24:c1:8c:ee:e6:d0:c2:06:de:14:2d:
                    1a:89
                Exponent: 65537 (0x10001)
        X509v3 extensions:
            X509v3 Basic Constraints: 
                CA:FALSE
            Netscape Comment: 
                OpenSSL Generated Certificate
            X509v3 Subject Key Identifier: 
                70:34:99:AD:29:E3:27:9D:BD:97:72:50:20:98:D2:97:B3:6C:AD:A1
            X509v3 Authority Key Identifier: 
                AC:87:DC:8B:3D:8A:DB:89:48:7E:6F:3B:1C:C6:70:92:09:17:6F:F9
            Authority Information Access: 
                OCSP - URI:http://127.0.0.1:8888
            X509v3 Subject Alternative Name: 
                DNS:localhost, IP Address:127.0.0.1
    Signature Algorithm: sha256WithRSAEncryption
    Signature Value:
        77:af:4a:b3:09:d8:9b:43:5a:73:78:10:ba:31:ad:a5:06:50:
        49:5d:14:f7:7b:1c:38:f0:3a:9b:67:b3:cb:71:52:7a:df:67:
        fa:e1:c1:8b:18:dc:4e:bf:21:6d:58:b1:5f:df:2d:f1:ee:62:
        a1:b6:78:dd:e2:c5:f2:4f:0b:9d:3d:cc:88:c7:26:8d:f0:41:
        02:ad:bd:e0:29:21:f9:0c:0a:07:cf:38:a4:f1:db:87:f7:e5:
        ed:55:59:b5:34:7d:b4:39:70:ca:81:7a:bb:20:fa:2e:85:47:
        72:9c:35:f8:f2:e1:57:f9:9e:5c:9c:76:92:50:6a:c9:52:e9:
        a0:d3:4d:41:03:f7:4f:bb:fc:5c:b8:aa:2c:7d:10:ff:3f:6c:
        82:e0:60:b8:d5:58:66:de:e0:db:30:b7:bf:3c:09:b9:3c:5c:
        36:cc:c6:d3:aa:58:9f:90:fe:e7:eb:5b:62:e2:66:a5:88:ec:
        dd:2b:64:d1:25:08:e6:0a:49:91:5f:ac:1f:35:8d:2c:a2:71:
        de:01:18:b0:0e:13:3d:cd:83:92:67:62:63:8a:63:bb:eb:8d:
        f9:b7:95:b0:b6:a8:9c:14:8c:0b:00:34:8b:65:af:b7:6c:b9:
        1b:94:e2:54:3f:ee:87:0f:81:a9:3f:61:10:5f:ee:4d:42:b5:
        67:77:30:2e:04:4f:ad:5d:4e:de:e3:20:b3:8f:ca:46:98:7d:
        97:91:1d:4c:04:d9:bb:ae:02:3d:6f:55:dd:39:64:f3:53:86:
        b6:4a:6a:eb:4a:7a:46:4e:0f:3b:44:8e:c2:46:c6:4b:07:1e:
        b1:4e:8a:1c:fd:6a:06:55:2e:88:c6:85:8c:9b:c2:ea:90:e1:
        0b:d9:b1:af:2d:80:7f:b6:a2:c7:7a:63:7d:0a:cd:60:f6:46:
        ea:40:3d:7d:4e:89:3e:0b:5d:22:8f:b7:3a:3a:38:18:26:a3:
        76:e9:cf:18:bc:c1:3c:8b:06:74:b6:f2:a8:a9:b4:cf:e1:96:
        54:bd:87:21:1d:20:b6:25:d1:d9:c6:fa:94:25:c6:6e:2b:1e:
        a1:51:e3:31:ff:43:77:bd:e0:4c:6a:c2:24:97:43:99:f6:cb:
        dd:3f:63:31:88:af:07:ef:e0:2b:3b:8e:3b:80:26:27:a6:c3:
        58:95:53:fa:39:14:59:42:3d:3a:e5:02:ff:0d:5b:e0:63:ad:
        93:72:8e:1d:55:c2:f9:49:7d:5c:cb:35:d2:11:b4:86:2d:26:
        61:74:1e:4d:e6:c7:97:e7:99:8b:fc:91:41:c8:9f:b8:ec:3e:
        a3:f9:18:b5:2a:2e:1d:ee:2d:b6:cd:8f:14:be:b8:1c:6d:fd:
        c3:59:61:66:87:e8:31:82
-----BEGIN CERTIFICATE-----
MIIFZjCCA06gAwIBAgICEAAwDQYJKoZIhvcNAQELBQAwgZQxCzAJBgNVBAYTAlVT
MQswCQYDVQQIEwJERTETMBEGA1UEBxMKV2lsbWluZ3RvbjEnMCUGA1UEChMeVGhl
IEFwYWNoZSBTb2Z0d2FyZSBGb3VuZGF0aW9uMRowGAYDVQQLExFBcGFjaGUgVG9t
Y2F0IFBNQzEeMBwGA1UEAxMVQXBhY2hlIFRvbWNhdCBUZXN0IENBMB4XDTI1MTIw
NTE5MTMyM1oXDTI3MTIwNTE5MTMyM1owgYgxCzAJBgNVBAYTAlVTMQswCQYDVQQI
EwJERTETMBEGA1UEBxMKV2lsbWluZ3RvbjEnMCUGA1UEChMeVGhlIEFwYWNoZSBT
b2Z0d2FyZSBGb3VuZGF0aW9uMRowGAYDVQQLExFBcGFjaGUgVG9tY2F0IFBNQzES
MBAGA1UEAxMJbG9jYWxob3N0MIIBIjANBgkqhkiG9w0BAQEFAAOCAQ8AMIIBCgKC
AQEAsdouUFxbItuEYV7kneGkJGyS05Zad1LI988WtWCApxUOEnUavD8LVDiW9i8K
OGwhaNoTSaJ7fIDHqmn+44yxznPmW4DiNolJWwPOdke/NSDuxnjfYqrR17+RsPyq
/X9ZP4pRn31ZD+HW3HsWgGI/bMIsG6UFHkCQYCDhw20//xxzhJKGWQPlSvbW3OZu
aB8FX/chqfxe5vyLxzY0GPzVcCFUWvEQySTICJIskRNUsdlZcIA5n4yQrcnSuL2j
KCA/ZzWi2SDiPy6+PYjSO307R0R5U+JSmHITrqKd/mi9NowuQ7E7zVA1PbX3L0Pq
HsnREKzoJMGM7ubQwgbeFC0aiQIDAQABo4HLMIHIMAkGA1UdEwQCMAAwLAYJYIZI
AYb4QgENBB8WHU9wZW5TU0wgR2VuZXJhdGVkIENlcnRpZmljYXRlMB0GA1UdDgQW
BBRwNJmtKeMnnb2XclAgmNKXs2ytoTAfBgNVHSMEGDAWgBSsh9yLPYrbiUh+bzsc
xnCSCRdv+TAxBggrBgEFBQcBAQQlMCMwIQYIKwYBBQUHMAGGFWh0dHA6Ly8xMjcu
MC4wLjE6ODg4ODAaBgNVHREEEzARgglsb2NhbGhvc3SHBH8AAAEwDQYJKoZIhvcN
AQELBQADggIBAHevSrMJ2JtDWnN4ELoxraUGUEldFPd7HDjwOptns8txUnrfZ/rh
wYsY3E6/IW1YsV/fLfHuYqG2eN3ixfJPC509zIjHJo3wQQKtveApIfkMCgfPOKTx
24f35e1VWbU0fbQ5cMqBersg+i6FR3KcNfjy4Vf5nlycdpJQaslS6aDTTUED90+7
/Fy4qix9EP8/bILgYLjVWGbe4Nswt788Cbk8XDbMxtOqWJ+Q/ufrW2LiZqWI7N0r
ZNElCOYKSZFfrB81jSyicd4BGLAOEz3Ng5JnYmOKY7vrjfm3lbC2qJwUjAsANItl
r7dsuRuU4lQ/7ocPgak/YRBf7k1CtWd3MC4ET61dTt7jILOPykaYfZeRHUwE2buu
Aj1vVd05ZPNThrZKautKekZODztEjsJGxksHHrFOihz9agZVLojGhYybwuqQ4QvZ
sa8tgH+2osd6Y30KzWD2RupAPX1OiT4LXSKPtzo6OBgmo3bpzxi8wTyLBnS28qip
tM/hllS9hyEdILYl0dnG+pQlxm4rHqFR4zH/Q3e94ExqwiSXQ5n2y90/YzGIrwfv
4Cs7jjuAJiemw1iVU/o5FFlCPTrlAv8NW+BjrZNyjh1VwvlJfVzLNdIRtIYtJmF0
Hk3mx5fnmYv8kUHIn7jsPqP5GLUqLh3uLbbNjxS+uBxt/cNZYWaH6DGC
-----END CERTIFICATE-----
