Certificate:
    Data:
        Version: 3 (0x2)
        Serial Number: 4110 (0x100e)
        Signature Algorithm: sha256WithRSAEncryption
        Issuer: C=US, ST=MA, L=Wakefield, O=The Apache Software Foundation, OU=Apache Tomcat PMC, CN=Apache Tomcat Test CA
        Validity
            Not Before: Feb 17 16:05:19 2023 GMT
            Not After : Feb 16 16:05:19 2025 GMT
        Subject: C=US, ST=DE, L=Wilmington, O=The Apache Software Foundation, OU=Apache Tomcat PMC, CN=localhost
        Subject Public Key Info:
            Public Key Algorithm: id-ecPublicKey
                Public-Key: (256 bit)
                pub:
                    04:38:6d:73:27:ea:ab:41:cc:7b:ac:36:18:94:ab:
                    1f:de:f3:aa:35:f4:ef:8e:2e:60:39:63:5c:08:75:
                    cf:86:aa:4d:ef:40:85:16:40:d1:d5:a5:36:2c:25:
                    05:20:8d:f5:ff:2b:a9:cf:5d:4b:b9:e1:b0:d4:9e:
                    81:be:2a:cb:8d
                ASN1 OID: prime256v1
                NIST CURVE: P-256
        X509v3 extensions:
            X509v3 Basic Constraints: 
                CA:FALSE
            Netscape Comment: 
                OpenSSL Generated Certificate
            X509v3 Subject Key Identifier: 
                A8:26:CE:0D:E5:8E:35:2E:AC:B0:5B:E1:89:42:FA:64:26:F3:4C:69
            X509v3 Authority Key Identifier: 
                00:F2:98:4D:21:2C:00:3C:40:9B:84:F4:DE:2A:F0:26:EE:32:0E:9F
    Signature Algorithm: sha256WithRSAEncryption
    Signature Value:
        40:ba:a4:ff:c2:df:92:55:88:e4:8e:35:9e:28:28:ce:f4:63:
        f0:da:a2:3e:f4:af:68:60:fb:f3:d4:d8:9d:d4:d3:54:3e:dc:
        33:e4:24:74:0f:4b:af:fa:b5:bd:56:5c:dd:0d:86:7f:99:b7:
        fc:84:8c:88:b9:f5:50:f1:8f:ea:3c:7a:95:a6:6c:5e:20:9a:
        2d:a9:b5:35:d6:f4:37:23:1a:79:ce:e3:40:23:79:09:b4:08:
        fc:22:3e:c4:d3:66:70:84:06:e8:54:21:b2:7a:22:ed:78:d3:
        9f:8f:da:92:2d:1c:0a:95:3f:b2:fe:18:50:60:73:ea:2f:8d:
        cc:e8:73:52:16:38:76:ba:9c:2c:85:2c:a6:3d:30:fd:f8:a0:
        da:6b:24:d8:a0:ad:d0:5c:d3:d3:a2:13:47:49:d8:49:1b:0d:
        56:fd:4a:4d:62:b7:32:f0:97:23:22:ea:a3:68:5a:c7:f3:56:
        dc:bf:95:82:fe:8b:ff:10:f5:79:1a:e5:07:12:ca:46:75:42:
        0d:b2:2b:2e:26:39:72:08:0f:53:f4:d7:de:75:da:c3:a1:69:
        32:0e:eb:94:63:3f:7d:81:13:cf:c2:a6:ae:8f:02:3f:0d:a9:
        99:68:e1:ff:b1:17:c8:94:58:57:ae:cb:08:9e:88:1e:17:1d:
        e3:8b:f7:a9:f5:fc:d5:0d:87:bd:6f:f3:26:b1:6b:cb:62:59:
        d8:4d:2d:21:40:57:77:b2:53:05:4f:2c:b7:f2:f8:57:d5:93:
        85:00:1f:97:e3:6b:d0:05:1e:8e:4a:4f:02:98:3f:69:37:75:
        64:37:07:aa:d6:b3:00:bc:8f:52:e9:c9:8e:98:82:f5:6a:d8:
        c2:94:dc:5f:2c:31:09:15:6a:62:05:6d:4c:9d:14:e8:a0:f4:
        ae:f5:14:f3:61:28:13:55:bf:22:50:78:23:4f:80:34:7e:f2:
        b0:89:e2:fa:6b:d2:00:b1:aa:71:a7:2f:1c:04:b9:1e:39:6c:
        c5:fc:10:8a:4c:7f:d1:16:74:87:45:f2:11:a9:71:12:0f:2b:
        0e:d7:20:16:a7:a1:8a:36:a9:bc:2c:0d:b9:eb:e8:5b:bc:75:
        e2:3b:84:28:3f:c0:c3:7d:87:99:e0:aa:42:ef:66:73:5f:ec:
        be:14:c0:70:cf:46:23:c2:bf:ee:c1:c7:af:28:99:e2:09:23:
        4e:de:b5:be:d6:44:1c:fa:b0:77:ee:b3:7a:b4:a6:d7:e8:24:
        a4:10:50:cb:94:2d:94:0e:52:19:d1:d3:88:b8:36:35:2b:c3:
        af:82:a2:f8:4c:55:b2:6e:42:65:80:00:74:17:53:af:7a:f9:
        60:59:b7:3e:82:bc:2d:00
-----BEGIN CERTIFICATE-----
MIIESTCCAjGgAwIBAgICEA4wDQYJKoZIhvcNAQELBQAwgZMxCzAJBgNVBAYTAlVT
MQswCQYDVQQIEwJNQTESMBAGA1UEBxMJV2FrZWZpZWxkMScwJQYDVQQKEx5UaGUg
QXBhY2hlIFNvZnR3YXJlIEZvdW5kYXRpb24xGjAYBgNVBAsTEUFwYWNoZSBUb21j
YXQgUE1DMR4wHAYDVQQDExVBcGFjaGUgVG9tY2F0IFRlc3QgQ0EwHhcNMjMwMjE3
MTYwNTE5WhcNMjUwMjE2MTYwNTE5WjCBiDELMAkGA1UEBhMCVVMxCzAJBgNVBAgM
AkRFMRMwEQYDVQQHDApXaWxtaW5ndG9uMScwJQYDVQQKDB5UaGUgQXBhY2hlIFNv
ZnR3YXJlIEZvdW5kYXRpb24xGjAYBgNVBAsMEUFwYWNoZSBUb21jYXQgUE1DMRIw
EAYDVQQDDAlsb2NhbGhvc3QwWTATBgcqhkjOPQIBBggqhkjOPQMBBwNCAAQ4bXMn
6qtBzHusNhiUqx/e86o19O+OLmA5Y1wIdc+Gqk3vQIUWQNHVpTYsJQUgjfX/K6nP
XUu54bDUnoG+KsuNo3sweTAJBgNVHRMEAjAAMCwGCWCGSAGG+EIBDQQfFh1PcGVu
U1NMIEdlbmVyYXRlZCBDZXJ0aWZpY2F0ZTAdBgNVHQ4EFgQUqCbODeWONS6ssFvh
iUL6ZCbzTGkwHwYDVR0jBBgwFoAUAPKYTSEsADxAm4T03irwJu4yDp8wDQYJKoZI
hvcNAQELBQADggIBAEC6pP/C35JViOSONZ4oKM70Y/Daoj70r2hg+/PU2J3U01Q+
3DPkJHQPS6/6tb1WXN0Nhn+Zt/yEjIi59VDxj+o8epWmbF4gmi2ptTXW9DcjGnnO
40AjeQm0CPwiPsTTZnCEBuhUIbJ6Iu1405+P2pItHAqVP7L+GFBgc+ovjczoc1IW
OHa6nCyFLKY9MP34oNprJNigrdBc09OiE0dJ2EkbDVb9Sk1itzLwlyMi6qNoWsfz
Vty/lYL+i/8Q9Xka5QcSykZ1Qg2yKy4mOXIID1P019512sOhaTIO65RjP32BE8/C
pq6PAj8NqZlo4f+xF8iUWFeuywieiB4XHeOL96n1/NUNh71v8yaxa8tiWdhNLSFA
V3eyUwVPLLfy+FfVk4UAH5fja9AFHo5KTwKYP2k3dWQ3B6rWswC8j1LpyY6YgvVq
2MKU3F8sMQkVamIFbUydFOig9K71FPNhKBNVvyJQeCNPgDR+8rCJ4vpr0gCxqnGn
LxwEuR45bMX8EIpMf9EWdIdF8hGpcRIPKw7XIBanoYo2qbwsDbnr6Fu8deI7hCg/
wMN9h5ngqkLvZnNf7L4UwHDPRiPCv+7Bx68omeIJI07etb7WRBz6sHfus3q0ptfo
JKQQUMuULZQOUhnR04i4NjUrw6+CovhMVbJuQmWAAHQXU696+WBZtz6CvC0A
-----END CERTIFICATE-----
