Certificate:
    Data:
        Version: 3 (0x2)
        Serial Number: 4113 (0x1011)
        Signature Algorithm: sha256WithRSAEncryption
        Issuer: C=US, ST=MA, L=Wakefield, O=The Apache Software Foundation, OU=Apache Tomcat PMC, CN=Apache Tomcat Test CA
        Validity
            Not Before: Feb 16 17:59:33 2025 GMT
            Not After : Feb 16 17:59:33 2027 GMT
        Subject: C=US, ST=DE, L=Wilmington, O=The Apache Software Foundation, OU=Apache Tomcat PMC, CN=localhost
        Subject Public Key Info:
            Public Key Algorithm: id-ecPublicKey
                Public-Key: (256 bit)
                pub:
                    04:0a:0a:c9:36:e4:18:27:f0:ef:ac:f3:8a:8b:a8:
                    9c:15:f5:71:95:94:10:bc:74:4a:c5:1e:e7:c5:fd:
                    b0:b3:35:c0:5e:fe:11:2b:ae:ba:a7:a4:27:09:bd:
                    37:c5:de:bc:e7:6d:f7:de:dd:ab:ed:9d:cf:02:59:
                    1e:ba:b2:6a:b0
                ASN1 OID: prime256v1
                NIST CURVE: P-256
        X509v3 extensions:
            X509v3 Basic Constraints: 
                CA:FALSE
            Netscape Comment: 
                OpenSSL Generated Certificate
            X509v3 Subject Key Identifier: 
                B2:76:F0:C0:C9:97:89:B7:00:A2:9C:AA:5B:49:D8:62:C7:2B:81:AD
            X509v3 Authority Key Identifier: 
                00:F2:98:4D:21:2C:00:3C:40:9B:84:F4:DE:2A:F0:26:EE:32:0E:9F
    Signature Algorithm: sha256WithRSAEncryption
    Signature Value:
        55:68:78:de:91:87:35:36:63:ca:bf:b1:bb:17:89:ef:01:7d:
        be:40:d6:e3:cb:45:ae:3b:7f:97:0f:5f:f4:7c:eb:2b:5d:0f:
        2f:23:17:2d:2d:25:76:b1:1b:b8:59:24:4c:8b:0a:c7:cc:07:
        37:f5:55:b2:20:b4:51:c9:ee:3b:0b:2f:b0:b2:d0:7f:76:30:
        0e:46:65:63:45:67:cd:bd:42:ba:55:72:16:cd:6d:37:07:9b:
        9c:9b:ee:cc:63:e1:32:15:c2:3c:76:05:a6:25:51:c2:a7:99:
        dd:03:36:d4:d4:75:47:50:a9:bc:e6:d6:a7:95:49:6a:54:12:
        26:27:94:a2:67:48:8a:42:38:fd:e4:58:8b:3c:c1:67:a2:dc:
        ba:4e:72:72:f7:60:d8:ce:18:c7:56:2d:61:bf:b5:5b:f7:d8:
        b9:d5:f0:3e:62:20:2f:f1:b2:6d:0e:b0:e2:9a:60:a0:3f:8c:
        7c:4a:ec:4f:fa:90:29:e5:b5:01:6e:20:f5:e5:d8:cd:ed:29:
        59:e3:93:29:08:a9:a3:6b:1f:9f:6b:91:48:78:ad:03:1f:64:
        0d:36:c7:c4:d3:40:a0:fc:cf:72:09:f5:8e:71:7b:cb:6c:fd:
        1a:d3:02:5e:37:96:d0:41:ef:b2:2b:a9:28:18:fc:de:68:7e:
        53:80:c4:8c:2b:90:42:de:61:ff:56:88:ea:f7:80:42:3f:cd:
        13:46:9d:6d:70:b3:83:b9:69:35:94:a0:56:d9:3e:39:fc:b1:
        bb:f5:6d:d4:3c:22:80:86:b3:32:2a:eb:2a:c9:5d:a8:4b:b9:
        48:70:68:d1:2c:2b:b7:bd:9c:2c:79:70:b4:e7:69:ba:32:bc:
        97:ff:07:2a:49:78:d7:a1:6f:d0:24:96:73:1e:8c:3f:20:a2:
        3c:fb:8f:11:e0:88:d3:86:06:6c:02:b8:a5:25:f2:10:1a:b3:
        bf:9a:ec:57:81:d4:d4:91:e1:6d:70:21:0b:6f:c0:a2:5d:49:
        29:9c:fa:bd:78:7f:a7:3b:45:65:96:79:68:33:71:f8:a9:ea:
        5c:69:69:b4:bf:8a:45:66:49:0d:e1:13:65:8b:27:72:cc:e6:
        99:42:80:6c:b8:cc:6b:d8:f0:d2:71:bb:a6:f1:fa:5a:70:8a:
        7b:df:65:4c:2f:bf:18:2c:b9:de:db:7f:e1:73:96:66:5d:73:
        aa:ef:f3:87:9e:e6:79:14:50:99:ae:bd:38:04:f2:78:54:db:
        ef:03:8a:57:9c:99:a8:57:87:c7:e7:84:19:d1:d9:4d:cf:a2:
        8d:66:29:1a:78:a8:28:85:3e:0b:44:9e:60:d6:f0:14:92:11:
        80:48:b5:5c:1b:81:8f:ba
-----BEGIN CERTIFICATE-----
MIIESTCCAjGgAwIBAgICEBEwDQYJKoZIhvcNAQELBQAwgZMxCzAJBgNVBAYTAlVT
MQswCQYDVQQIEwJNQTESMBAGA1UEBxMJV2FrZWZpZWxkMScwJQYDVQQKEx5UaGUg
QXBhY2hlIFNvZnR3YXJlIEZvdW5kYXRpb24xGjAYBgNVBAsTEUFwYWNoZSBUb21j
YXQgUE1DMR4wHAYDVQQDExVBcGFjaGUgVG9tY2F0IFRlc3QgQ0EwHhcNMjUwMjE2
MTc1OTMzWhcNMjcwMjE2MTc1OTMzWjCBiDELMAkGA1UEBhMCVVMxCzAJBgNVBAgM
AkRFMRMwEQYDVQQHDApXaWxtaW5ndG9uMScwJQYDVQQKDB5UaGUgQXBhY2hlIFNv
ZnR3YXJlIEZvdW5kYXRpb24xGjAYBgNVBAsMEUFwYWNoZSBUb21jYXQgUE1DMRIw
EAYDVQQDDAlsb2NhbGhvc3QwWTATBgcqhkjOPQIBBggqhkjOPQMBBwNCAAQKCsk2
5Bgn8O+s84qLqJwV9XGVlBC8dErFHufF/bCzNcBe/hErrrqnpCcJvTfF3rznbffe
3avtnc8CWR66smqwo3sweTAJBgNVHRMEAjAAMCwGCWCGSAGG+EIBDQQfFh1PcGVu
U1NMIEdlbmVyYXRlZCBDZXJ0aWZpY2F0ZTAdBgNVHQ4EFgQUsnbwwMmXibcAopyq
W0nYYscrga0wHwYDVR0jBBgwFoAUAPKYTSEsADxAm4T03irwJu4yDp8wDQYJKoZI
hvcNAQELBQADggIBAFVoeN6RhzU2Y8q/sbsXie8Bfb5A1uPLRa47f5cPX/R86ytd
Dy8jFy0tJXaxG7hZJEyLCsfMBzf1VbIgtFHJ7jsLL7Cy0H92MA5GZWNFZ829QrpV
chbNbTcHm5yb7sxj4TIVwjx2BaYlUcKnmd0DNtTUdUdQqbzm1qeVSWpUEiYnlKJn
SIpCOP3kWIs8wWei3LpOcnL3YNjOGMdWLWG/tVv32LnV8D5iIC/xsm0OsOKaYKA/
jHxK7E/6kCnltQFuIPXl2M3tKVnjkykIqaNrH59rkUh4rQMfZA02x8TTQKD8z3IJ
9Y5xe8ts/RrTAl43ltBB77IrqSgY/N5oflOAxIwrkELeYf9WiOr3gEI/zRNGnW1w
s4O5aTWUoFbZPjn8sbv1bdQ8IoCGszIq6yrJXahLuUhwaNEsK7e9nCx5cLTnaboy
vJf/BypJeNehb9AklnMejD8gojz7jxHgiNOGBmwCuKUl8hAas7+a7FeB1NSR4W1w
IQtvwKJdSSmc+r14f6c7RWWWeWgzcfip6lxpabS/ikVmSQ3hE2WLJ3LM5plCgGy4
zGvY8NJxu6bx+lpwinvfZUwvvxgsud7bf+FzlmZdc6rv84ee5nkUUJmuvTgE8nhU
2+8DilecmahXh8fnhBnR2U3Poo1mKRp4qCiFPgtEnmDW8BSSEYBItVwbgY+6
-----END CERTIFICATE-----
