Certificate:
    Data:
        Version: 3 (0x2)
        Serial Number: 4099 (0x1003)
    Signature Algorithm: sha1WithRSAEncryption
        Issuer: C=US, CN=ca-test.tomcat.apache.org
        Validity
            Not Before: Feb 28 05:28:42 2013 GMT
            Not After : Feb 28 05:28:42 2015 GMT
        Subject: C=US, CN=localhost
        Subject Public Key Info:
            Public Key Algorithm: rsaEncryption
                Public-Key: (2048 bit)
                Modulus:
                    00:e7:6f:79:3f:18:87:91:dd:27:98:34:24:79:58:
                    47:f9:c2:69:2b:d8:5b:c0:e0:bb:4a:57:d6:00:b5:
                    bb:6a:b0:66:84:5c:b8:f0:12:0a:27:27:32:9c:82:
                    2a:2f:0f:69:77:a6:e9:0d:df:64:31:51:c0:41:1e:
                    dc:d4:74:51:9c:a3:b8:51:13:58:73:ee:21:9c:f9:
                    63:82:1b:c2:2c:49:c3:09:70:ff:a9:f3:af:a2:0c:
                    0b:60:2f:6a:db:a5:01:45:3e:34:90:8e:67:69:eb:
                    45:f3:34:29:85:db:39:8a:99:c2:0f:72:15:21:fd:
                    54:35:a6:7b:a7:30:cb:1e:4d:3d:32:24:c6:4b:84:
                    4f:5f:60:ff:64:5e:68:ca:d8:fa:de:98:7d:40:04:
                    60:b7:ae:50:ec:c8:8c:ae:dd:94:81:41:18:5b:03:
                    63:0f:2b:02:63:0a:95:6a:ed:7e:68:e6:b6:d5:56:
                    e9:4e:60:ea:1d:95:58:33:be:a2:12:55:cb:7f:9c:
                    c4:97:0b:db:c0:94:09:2a:b3:9f:e1:6b:78:0d:63:
                    1a:41:d5:6b:db:d8:48:59:04:88:d1:11:d5:e7:45:
                    28:0e:7c:1b:78:75:20:7d:ff:7f:e1:d6:ea:e4:c5:
                    51:77:41:42:30:4b:ff:29:33:3d:89:58:94:69:5b:
                    70:27
                Exponent: 65537 (0x10001)
        X509v3 extensions:
            X509v3 Basic Constraints: 
                CA:FALSE
            Netscape Comment: 
                OpenSSL Generated Certificate
            X509v3 Subject Key Identifier: 
                30:DB:AB:70:94:34:CA:FD:75:46:AB:CE:E2:4A:A9:9E:74:BC:69:BB
            X509v3 Authority Key Identifier: 
                keyid:B0:3B:BC:C9:FA:28:5F:3E:04:1F:9B:6C:C7:8B:68:D8:01:B0:F8:3D

    Signature Algorithm: sha1WithRSAEncryption
         ab:d3:e7:2b:35:d3:6d:9f:87:2a:64:58:f1:61:cb:56:a8:84:
         22:79:ac:0d:68:1f:55:0d:dd:16:16:72:c4:a9:75:2a:0e:f8:
         b1:73:68:c9:ee:43:d8:5c:fa:07:5d:3f:41:fb:14:17:be:64:
         21:d8:1e:25:67:92:b2:c5:bb:43:1d:96:b6:d3:bd:1c:e1:a4:
         c7:ee:e3:37:0b:92:14:56:ca:ad:a8:76:5b:80:c9:42:8c:89:
         f1:42:6e:8c:fb:a1:d7:98:d5:6d:49:99:fe:b6:f6:c6:f3:cc:
         8f:06:54:6e:02:f5:8f:4b:f1:86:ac:14:93:6c:74:25:26:44:
         7a:5b:82:3c:57:d6:e5:14:6e:b7:29:53:e4:40:7a:2f:10:5d:
         ff:28:7f:e5:e5:54:6c:38:fa:b9:27:97:2a:69:60:ba:4a:5a:
         28:65:b1:81:e0:b7:a1:74:d6:e6:07:81:6d:b8:59:c3:45:bd:
         7c:a8:17:67:1f:fc:52:1a:6c:90:87:4d:a1:98:51:8c:29:6a:
         84:d9:0d:24:a8:86:6a:5e:6a:b7:f9:27:9b:52:37:96:b5:fd:
         94:11:ca:c4:d9:6d:69:81:fa:96:34:63:3a:7c:49:2d:06:48:
         ae:b1:14:59:12:29:8e:59:3d:03:99:42:90:e6:82:df:08:cf:
         d7:77:ec:00
-----BEGIN CERTIFICATE-----
MIIDSTCCAjGgAwIBAgICEAMwDQYJKoZIhvcNAQEFBQAwMTELMAkGA1UEBhMCVVMx
IjAgBgNVBAMTGWNhLXRlc3QudG9tY2F0LmFwYWNoZS5vcmcwHhcNMTMwMjI4MDUy
ODQyWhcNMTUwMjI4MDUyODQyWjAhMQswCQYDVQQGEwJVUzESMBAGA1UEAxMJbG9j
YWxob3N0MIIBIjANBgkqhkiG9w0BAQEFAAOCAQ8AMIIBCgKCAQEA5295PxiHkd0n
mDQkeVhH+cJpK9hbwOC7SlfWALW7arBmhFy48BIKJycynIIqLw9pd6bpDd9kMVHA
QR7c1HRRnKO4URNYc+4hnPljghvCLEnDCXD/qfOvogwLYC9q26UBRT40kI5naetF
8zQphds5ipnCD3IVIf1UNaZ7pzDLHk09MiTGS4RPX2D/ZF5oytj63ph9QARgt65Q
7MiMrt2UgUEYWwNjDysCYwqVau1+aOa21VbpTmDqHZVYM76iElXLf5zElwvbwJQJ
KrOf4Wt4DWMaQdVr29hIWQSI0RHV50UoDnwbeHUgff9/4dbq5MVRd0FCMEv/KTM9
iViUaVtwJwIDAQABo3sweTAJBgNVHRMEAjAAMCwGCWCGSAGG+EIBDQQfFh1PcGVu
U1NMIEdlbmVyYXRlZCBDZXJ0aWZpY2F0ZTAdBgNVHQ4EFgQUMNurcJQ0yv11RqvO
4kqpnnS8abswHwYDVR0jBBgwFoAUsDu8yfooXz4EH5tsx4to2AGw+D0wDQYJKoZI
hvcNAQEFBQADggEBAKvT5ys1022fhypkWPFhy1aohCJ5rA1oH1UN3RYWcsSpdSoO
+LFzaMnuQ9hc+gddP0H7FBe+ZCHYHiVnkrLFu0MdlrbTvRzhpMfu4zcLkhRWyq2o
dluAyUKMifFCboz7odeY1W1Jmf629sbzzI8GVG4C9Y9L8YasFJNsdCUmRHpbgjxX
1uUUbrcpU+RAei8QXf8of+XlVGw4+rknlyppYLpKWihlsYHgt6F01uYHgW24WcNF
vXyoF2cf/FIabJCHTaGYUYwpaoTZDSSohmpearf5J5tSN5a1/ZQRysTZbWmB+pY0
Yzp8SS0GSK6xFFkSKY5ZPQOZQpDmgt8Iz9d37AA=
-----END CERTIFICATE-----
