Certificate:
    Data:
        Version: 3 (0x2)
        Serial Number: 4109 (0x100d)
        Signature Algorithm: sha256WithRSAEncryption
        Issuer: C=US, ST=MA, L=Wakefield, O=The Apache Software Foundation, OU=Apache Tomcat PMC, CN=Apache Tomcat Test CA
        Validity
            Not Before: Feb 17 16:03:54 2023 GMT
            Not After : Feb 16 16:03:54 2025 GMT
        Subject: C=US, ST=DE, L=Wilmington, O=The Apache Software Foundation, OU=Apache Tomcat PMC, CN=localhost
        Subject Public Key Info:
            Public Key Algorithm: rsaEncryption
                Public-Key: (2048 bit)
                Modulus:
                    00:f2:2e:c8:d3:25:64:2f:76:ae:51:35:45:e4:7a:
                    5e:2a:ff:01:21:d7:08:5a:ec:2a:cb:03:7d:da:4d:
                    10:6e:74:83:e1:e9:79:6f:48:bd:d7:90:46:55:ab:
                    df:b7:c1:dd:3a:a6:c5:ae:fd:c0:9f:8c:1e:fb:b3:
                    3b:b0:9a:d6:fb:6e:05:51:e7:25:d8:ae:f8:5c:fa:
                    56:c2:7b:c6:5e:5b:bd:8a:6d:e9:46:ec:db:f1:8d:
                    0b:26:1a:ff:9a:30:27:06:63:a1:d8:16:40:b1:d8:
                    15:59:61:a5:7a:6f:1a:6a:e3:11:05:54:9d:25:3c:
                    0d:fa:6c:8b:9a:6a:93:6f:9f:c9:15:2a:73:9c:cc:
                    c7:2c:5b:b2:5f:fd:ad:5d:66:4a:5d:75:f0:ed:e1:
                    61:e6:0a:96:4b:a3:a8:71:d7:9b:cb:04:d0:f2:e1:
                    2a:1a:f1:42:67:53:f9:ee:00:97:80:f8:47:fb:4b:
                    6e:01:63:9c:cc:41:5b:25:75:b8:ca:ca:b9:f7:1b:
                    52:bf:a7:68:c7:eb:a2:f4:ff:7a:9b:5b:bc:fd:fa:
                    cf:9b:15:3a:33:32:75:f7:ca:40:42:f9:a8:2d:eb:
                    cb:b7:a0:64:0d:89:08:1c:2e:38:56:45:24:4f:ad:
                    94:19:e2:35:43:2c:fe:31:dc:38:b4:c1:10:f6:a1:
                    6a:75
                Exponent: 65537 (0x10001)
        X509v3 extensions:
            X509v3 Basic Constraints: 
                CA:FALSE
            Netscape Comment: 
                OpenSSL Generated Certificate
            X509v3 Subject Key Identifier: 
                5D:45:8F:DA:02:13:CC:A4:01:75:0C:BB:72:E2:3C:EA:FB:AA:A9:09
            X509v3 Authority Key Identifier: 
                00:F2:98:4D:21:2C:00:3C:40:9B:84:F4:DE:2A:F0:26:EE:32:0E:9F
            X509v3 Subject Alternative Name: 
                DNS:localhost, IP Address:127.0.0.1
    Signature Algorithm: sha256WithRSAEncryption
    Signature Value:
        0c:21:e7:d7:33:bb:6c:65:01:91:54:fa:0b:1c:c5:c9:83:51:
        02:03:a9:e7:c4:dc:30:4e:90:a8:73:8f:a8:ca:4e:2c:5a:ef:
        87:43:a2:de:3f:db:21:ea:60:7c:e4:a1:d4:75:66:3a:e9:44:
        af:e0:4a:2c:4e:59:bc:1f:af:5c:8c:8a:ed:06:ee:56:0a:cf:
        55:08:6a:51:90:ce:cf:cc:b9:22:95:3a:91:78:a5:84:96:4b:
        2b:a0:bf:7d:72:f7:01:b5:a1:ca:62:04:2e:73:d5:2c:30:fa:
        98:e3:89:35:9d:e6:d1:b2:79:19:55:dc:52:56:99:84:9f:4a:
        f0:16:d0:27:9b:12:13:55:9c:fd:f1:60:fa:21:79:58:69:cd:
        4f:0a:a4:5f:1c:9a:2f:fb:10:2c:94:95:13:54:3c:08:61:fd:
        43:8b:de:1f:c8:0b:c6:c5:92:3e:97:f8:c3:56:8b:98:7e:23:
        dd:73:c8:24:6d:39:e8:5b:eb:c9:15:60:dd:1e:d7:9a:62:bb:
        34:28:27:f5:59:de:8e:4a:d9:0f:3f:1c:95:39:c3:ab:82:d9:
        02:a0:d7:c4:85:39:f1:24:96:3a:e4:7a:cd:06:6b:93:dd:86:
        47:00:e6:2b:c8:f2:c4:d7:56:87:f2:25:2c:df:f8:21:62:86:
        19:b4:54:07:c2:4a:a8:f2:2e:0a:5b:9b:a6:51:31:c6:97:32:
        1b:e9:13:08:79:23:3b:f8:a4:28:79:3f:d0:76:0d:04:94:16:
        47:01:02:1d:44:ad:d4:54:22:30:a1:b9:f7:75:ff:c8:a1:91:
        78:f0:57:00:92:72:a3:45:81:10:10:77:4c:41:37:56:7a:a4:
        97:b2:1d:5f:b4:d2:67:00:25:1a:d4:08:18:a4:d8:4b:e6:3e:
        42:ac:f9:6b:72:46:bc:83:d7:aa:0f:e8:da:c5:1c:ce:55:1c:
        8b:d8:f2:3f:d4:e1:a0:f0:c0:d5:54:c1:7b:ac:3a:b8:2a:57:
        37:cf:55:2a:ce:c4:18:1d:97:b0:26:5b:b8:f4:bd:7f:5c:91:
        94:fa:fc:74:aa:e7:15:d1:2c:a9:12:bb:65:93:fe:39:62:82:
        50:d1:9d:dc:6f:e5:45:82:c0:fe:96:66:4a:5a:cf:55:82:56:
        92:20:12:8c:4b:da:35:f1:73:d9:02:cc:38:ab:1f:5e:60:56:
        9a:41:75:8e:a2:2e:33:25:3c:28:79:63:de:3b:06:75:26:9f:
        2e:b5:5b:24:32:00:48:5f:af:ee:5d:91:3f:24:42:6b:c8:22:
        76:41:00:b7:99:d8:05:4a:7a:50:44:bd:6f:d6:b0:fc:26:9d:
        1b:c1:8c:03:c8:26:79:e6
-----BEGIN CERTIFICATE-----
MIIFMjCCAxqgAwIBAgICEA0wDQYJKoZIhvcNAQELBQAwgZMxCzAJBgNVBAYTAlVT
MQswCQYDVQQIEwJNQTESMBAGA1UEBxMJV2FrZWZpZWxkMScwJQYDVQQKEx5UaGUg
QXBhY2hlIFNvZnR3YXJlIEZvdW5kYXRpb24xGjAYBgNVBAsTEUFwYWNoZSBUb21j
YXQgUE1DMR4wHAYDVQQDExVBcGFjaGUgVG9tY2F0IFRlc3QgQ0EwHhcNMjMwMjE3
MTYwMzU0WhcNMjUwMjE2MTYwMzU0WjCBiDELMAkGA1UEBhMCVVMxCzAJBgNVBAgT
AkRFMRMwEQYDVQQHEwpXaWxtaW5ndG9uMScwJQYDVQQKEx5UaGUgQXBhY2hlIFNv
ZnR3YXJlIEZvdW5kYXRpb24xGjAYBgNVBAsTEUFwYWNoZSBUb21jYXQgUE1DMRIw
EAYDVQQDEwlsb2NhbGhvc3QwggEiMA0GCSqGSIb3DQEBAQUAA4IBDwAwggEKAoIB
AQDyLsjTJWQvdq5RNUXkel4q/wEh1wha7CrLA33aTRBudIPh6XlvSL3XkEZVq9+3
wd06psWu/cCfjB77szuwmtb7bgVR5yXYrvhc+lbCe8ZeW72KbelG7NvxjQsmGv+a
MCcGY6HYFkCx2BVZYaV6bxpq4xEFVJ0lPA36bIuaapNvn8kVKnOczMcsW7Jf/a1d
ZkpddfDt4WHmCpZLo6hx15vLBNDy4Soa8UJnU/nuAJeA+Ef7S24BY5zMQVsldbjK
yrn3G1K/p2jH66L0/3qbW7z9+s+bFTozMnX3ykBC+agt68u3oGQNiQgcLjhWRSRP
rZQZ4jVDLP4x3Di0wRD2oWp1AgMBAAGjgZgwgZUwCQYDVR0TBAIwADAsBglghkgB
hvhCAQ0EHxYdT3BlblNTTCBHZW5lcmF0ZWQgQ2VydGlmaWNhdGUwHQYDVR0OBBYE
FF1Fj9oCE8ykAXUMu3LiPOr7qqkJMB8GA1UdIwQYMBaAFADymE0hLAA8QJuE9N4q
8CbuMg6fMBoGA1UdEQQTMBGCCWxvY2FsaG9zdIcEfwAAATANBgkqhkiG9w0BAQsF
AAOCAgEADCHn1zO7bGUBkVT6CxzFyYNRAgOp58TcME6QqHOPqMpOLFrvh0Oi3j/b
IepgfOSh1HVmOulEr+BKLE5ZvB+vXIyK7QbuVgrPVQhqUZDOz8y5IpU6kXilhJZL
K6C/fXL3AbWhymIELnPVLDD6mOOJNZ3m0bJ5GVXcUlaZhJ9K8BbQJ5sSE1Wc/fFg
+iF5WGnNTwqkXxyaL/sQLJSVE1Q8CGH9Q4veH8gLxsWSPpf4w1aLmH4j3XPIJG05
6FvryRVg3R7XmmK7NCgn9VnejkrZDz8clTnDq4LZAqDXxIU58SSWOuR6zQZrk92G
RwDmK8jyxNdWh/IlLN/4IWKGGbRUB8JKqPIuClubplExxpcyG+kTCHkjO/ikKHk/
0HYNBJQWRwECHUSt1FQiMKG593X/yKGRePBXAJJyo0WBEBB3TEE3Vnqkl7IdX7TS
ZwAlGtQIGKTYS+Y+Qqz5a3JGvIPXqg/o2sUczlUci9jyP9ThoPDA1VTBe6w6uCpX
N89VKs7EGB2XsCZbuPS9f1yRlPr8dKrnFdEsqRK7ZZP+OWKCUNGd3G/lRYLA/pZm
SlrPVYJWkiASjEvaNfFz2QLMOKsfXmBWmkF1jqIuMyU8KHlj3jsGdSafLrVbJDIA
SF+v7l2RPyRCa8gidkEAt5nYBUp6UES9b9aw/CadG8GMA8gmeeY=
-----END CERTIFICATE-----
