Certificate:
    Data:
        Version: 3 (0x2)
        Serial Number: 4102 (0x1006)
        Signature Algorithm: sha256WithRSAEncryption
        Issuer: C=US, ST=MA, L=Wakefield, O=The Apache Software Foundation, OU=Apache Tomcat PMC, CN=Apache Tomcat Test CA
        Validity
            Not Before: Aug  7 20:30:28 2019 GMT
            Not After : Aug  6 20:30:28 2021 GMT
        Subject: C=US, ST=MA, L=Wakefield, O=The Apache Software Foundation, OU=Apache Tomcat PMC, CN=localhost
        Subject Public Key Info:
            Public Key Algorithm: rsaEncryption
                RSA Public-Key: (2048 bit)
                Modulus:
                    00:cf:e2:56:a6:67:a6:e8:e7:f3:94:86:6e:f9:06:
                    46:cf:20:66:b5:cd:b1:c7:d6:50:ea:4d:46:44:ed:
                    45:65:ea:b6:9b:2e:49:a5:25:c1:8e:36:f6:2c:bc:
                    8e:09:35:0b:2f:43:70:73:07:47:1d:78:a1:12:e9:
                    56:5d:ab:84:15:16:0e:38:01:bb:81:87:2d:c4:3b:
                    dc:2e:4a:e1:d4:66:1b:ce:87:2c:a9:b8:e3:aa:80:
                    75:79:b1:98:f3:dd:df:66:d0:0d:e1:06:d8:6c:6c:
                    50:f0:00:80:32:70:55:7b:dd:eb:ae:f2:6a:bf:93:
                    3d:15:e1:25:f8:75:ce:d8:46:dc:c4:6b:ee:f9:f5:
                    93:39:ad:90:47:15:4b:fa:ca:5b:fe:ca:1b:29:8a:
                    74:19:2a:cb:1e:4f:20:d9:74:75:24:a0:06:d1:3a:
                    ed:9b:88:87:f3:1b:0f:a6:14:67:e9:ed:47:2e:a1:
                    25:6a:c2:97:04:13:f4:9f:62:38:cd:5a:e7:ad:c2:
                    64:2c:8f:9c:3d:04:58:12:42:e5:0c:8e:8c:ce:78:
                    3d:60:38:ce:06:ff:9c:ea:9c:c9:0f:73:90:b2:1a:
                    4a:16:99:c9:fe:95:88:7b:3c:7f:19:d0:26:27:11:
                    78:f9:92:5c:b4:f5:d4:cb:b0:84:0c:74:37:3d:87:
                    1a:0b
                Exponent: 65537 (0x10001)
        X509v3 extensions:
            X509v3 Basic Constraints:
                CA:FALSE
            Netscape Comment:
                OpenSSL Generated Certificate
            X509v3 Subject Key Identifier: 
                0D:86:88:1D:07:59:CE:14:B4:89:81:58:C6:0B:FF:4C:CA:25:52:80
            X509v3 Authority Key Identifier: 
                keyid:00:F2:98:4D:21:2C:00:3C:40:9B:84:F4:DE:2A:F0:26:EE:32:0E:9F

            Authority Information Access: 
                OCSP - URI:http://127.0.0.1:8888

            X509v3 Subject Alternative Name: 
                DNS:localhost, IP Address:127.0.0.1
    Signature Algorithm: sha256WithRSAEncryption
         7d:dc:b1:0f:dd:34:df:26:63:73:02:8a:d6:39:64:73:c3:fc:
         40:75:26:b6:9b:42:72:af:c9:63:41:68:d0:78:c7:47:ef:c2:
         44:5a:b3:58:95:a3:2c:f3:b1:f4:a3:3d:0b:94:ff:b4:97:6a:
         e9:4b:4b:c2:3a:f6:36:43:af:ee:2f:39:3e:f2:5f:2c:a2:b7:
         43:3c:13:42:d8:4e:e0:36:bc:23:c5:43:88:46:92:f7:77:14:
         67:73:14:5b:43:0e:3d:b5:1a:69:e9:ca:84:08:20:27:9f:23:
         4d:60:db:cb:98:4a:b3:3e:71:e6:e8:a1:11:1c:7e:7e:43:fb:
         6d:a5:41:c0:7e:3f:84:ed:06:28:dc:aa:80:17:76:ec:8a:e6:
         65:45:21:85:13:48:e0:5b:87:c8:2a:1a:0f:37:0f:2a:64:53:
         a8:e3:49:04:84:88:fe:8b:a2:3c:cc:41:c7:c0:ad:26:d6:e1:
         67:69:9a:50:c7:eb:3d:1c:7f:da:88:08:24:14:6e:a1:ab:3e:
         77:3f:88:12:55:98:97:9f:db:ad:09:e2:20:fe:8d:1f:ea:4f:
         46:7e:d8:aa:ba:14:bd:a8:c2:6f:1b:47:62:d9:05:ca:c7:30:
         7b:1e:95:2e:55:10:1d:b1:e3:44:95:07:25:6e:8c:9d:69:5b:
         5c:ad:5f:56:27:e8:60:9f:d2:f4:64:7f:f7:8f:dc:bb:ee:bf:
         be:0b:ea:34:9b:37:de:f0:5c:e0:64:c2:52:42:a6:0d:20:7d:
         78:34:42:c1:1c:43:a1:98:e8:48:7b:92:49:2b:d9:63:91:6a:
         70:02:d0:1b:a5:2a:ee:e5:1b:12:4f:cb:c9:e7:18:ae:66:f5:
         04:d9:d2:68:95:c1:31:fe:57:9d:51:f5:fc:ed:43:3b:79:bf:
         c3:9d:85:68:d8:98:a5:3c:a2:bb:fb:5b:19:5b:de:f0:7e:c8:
         5e:47:ba:5d:8a:5b:44:f1:44:54:64:c0:da:95:a6:f0:bf:a9:
         3f:5d:4c:72:97:86:ae:1e:0d:cd:20:4b:85:e0:4e:26:4d:29:
         4e:96:43:b0:fd:30:5f:53:24:97:bc:35:d8:31:4b:6c:ea:a7:
         f9:64:f9:cb:a0:14:c4:fc:54:78:13:52:b5:06:8f:7a:c2:00:
         14:97:18:06:ef:bc:2f:2a:31:fc:11:25:7f:47:e3:3b:54:e7:
         46:62:78:ba:52:07:32:41:48:9d:47:bd:1c:f4:eb:49:11:42:
         40:9c:36:5a:e0:84:bd:09:44:91:bb:5c:d1:c4:28:6a:68:34:
         f9:2c:22:b7:fc:43:bb:c4:96:02:ce:73:43:be:de:02:9c:e1:
         d2:2a:4a:76:19:d6:3f:b0
-----BEGIN CERTIFICATE-----
MIIFZDCCA0ygAwIBAgICEAYwDQYJKoZIhvcNAQELBQAwgZMxCzAJBgNVBAYTAlVT
MQswCQYDVQQIEwJNQTESMBAGA1UEBxMJV2FrZWZpZWxkMScwJQYDVQQKEx5UaGUg
QXBhY2hlIFNvZnR3YXJlIEZvdW5kYXRpb24xGjAYBgNVBAsTEUFwYWNoZSBUb21j
YXQgUE1DMR4wHAYDVQQDExVBcGFjaGUgVG9tY2F0IFRlc3QgQ0EwHhcNMTkwODA3
MjAzMDI4WhcNMjEwODA2MjAzMDI4WjCBhzELMAkGA1UEBhMCVVMxCzAJBgNVBAgT
Ak1BMRIwEAYDVQQHEwlXYWtlZmllbGQxJzAlBgNVBAoTHlRoZSBBcGFjaGUgU29m
dHdhcmUgRm91bmRhdGlvbjEaMBgGA1UECxMRQXBhY2hlIFRvbWNhdCBQTUMxEjAQ
BgNVBAMTCWxvY2FsaG9zdDCCASIwDQYJKoZIhvcNAQEBBQADggEPADCCAQoCggEB
AM/iVqZnpujn85SGbvkGRs8gZrXNscfWUOpNRkTtRWXqtpsuSaUlwY429iy8jgk1
Cy9DcHMHRx14oRLpVl2rhBUWDjgBu4GHLcQ73C5K4dRmG86HLKm446qAdXmxmPPd
32bQDeEG2GxsUPAAgDJwVXvd667yar+TPRXhJfh1zthG3MRr7vn1kzmtkEcVS/rK
W/7KGymKdBkqyx5PINl0dSSgBtE67ZuIh/MbD6YUZ+ntRy6hJWrClwQT9J9iOM1a
563CZCyPnD0EWBJC5QyOjM54PWA4zgb/nOqcyQ9zkLIaShaZyf6ViHs8fxnQJicR
ePmSXLT11MuwhAx0Nz2HGgsCAwEAAaOByzCByDAJBgNVHRMEAjAAMCwGCWCGSAGG
+EIBDQQfFh1PcGVuU1NMIEdlbmVyYXRlZCBDZXJ0aWZpY2F0ZTAdBgNVHQ4EFgQU
DYaIHQdZzhS0iYFYxgv/TMolUoAwHwYDVR0jBBgwFoAUAPKYTSEsADxAm4T03irw
Ju4yDp8wMQYIKwYBBQUHAQEEJTAjMCEGCCsGAQUFBzABhhVodHRwOi8vMTI3LjAu
MC4xOjg4ODgwGgYDVR0RBBMwEYIJbG9jYWxob3N0hwR/AAABMA0GCSqGSIb3DQEB
CwUAA4ICAQB93LEP3TTfJmNzAorWOWRzw/xAdSa2m0Jyr8ljQWjQeMdH78JEWrNY
laMs87H0oz0LlP+0l2rpS0vCOvY2Q6/uLzk+8l8sordDPBNC2E7gNrwjxUOIRpL3
dxRncxRbQw49tRpp6cqECCAnnyNNYNvLmEqzPnHm6KERHH5+Q/ttpUHAfj+E7QYo
3KqAF3bsiuZlRSGFE0jgW4fIKhoPNw8qZFOo40kEhIj+i6I8zEHHwK0m1uFnaZpQ
x+s9HH/aiAgkFG6hqz53P4gSVZiXn9utCeIg/o0f6k9GftiquhS9qMJvG0di2QXK
xzB7HpUuVRAdseNElQclboydaVtcrV9WJ+hgn9L0ZH/3j9y77r++C+o0mzfe8Fzg
ZMJSQqYNIH14NELBHEOhmOhIe5JJK9ljkWpwAtAbpSru5RsST8vJ5xiuZvUE2dJo
lcEx/ledUfX87UM7eb/DnYVo2JilPKK7+1sZW97wfsheR7pdiltE8URUZMDalabw
v6k/XUxyl4auHg3NIEuF4E4mTSlOlkOw/TBfUySXvDXYMUts6qf5ZPnLoBTE/FR4
E1K1Bo96wgAUlxgG77wvKjH8ESV/R+M7VOdGYni6UgcyQUidR70c9OtJEUJAnDZa
4IS9CUSRu1zRxChqaDT5LCK3/EO7xJYCznNDvt4CnOHSKkp2GdY/sA==
-----END CERTIFICATE-----
