Certificate:
    Data:
        Version: 3 (0x2)
        Serial Number: 4101 (0x1005)
        Signature Algorithm: sha256WithRSAEncryption
        Issuer: C=US, ST=DE, L=Wilmington, O=The Apache Software Foundation, OU=Apache Tomcat PMC, CN=Apache Tomcat Test CA
        Validity
            Not Before: Dec  5 19:33:55 2025 GMT
            Not After : Dec  5 19:33:55 2027 GMT
        Subject: C=US, ST=DE, L=Wilmington, O=The Apache Software Foundation, OU=Apache Tomcat PMC, CN=OCSP Responder
        Subject Public Key Info:
            Public Key Algorithm: rsaEncryption
                Public-Key: (2048 bit)
                Modulus:
                    00:9b:ae:b1:40:e5:e4:84:b6:c3:ec:93:cf:23:63:
                    51:51:7f:bd:d3:64:1d:e0:23:bb:33:44:f1:47:c6:
                    f5:d2:4d:2a:13:2a:f4:4c:d2:44:13:56:03:73:16:
                    30:98:be:66:b1:fb:3c:e9:9c:5a:61:25:b8:47:ef:
                    72:04:ad:ab:6a:f8:83:fe:00:a6:c0:8b:a3:ef:34:
                    09:4f:13:e6:fa:96:d3:2b:24:db:e3:d1:4a:40:50:
                    5f:9f:8f:31:fa:de:42:0d:e6:a2:4a:7a:e6:a6:48:
                    5a:97:04:b3:b9:bd:52:2e:2f:e9:02:27:1b:8f:bf:
                    2b:19:28:e8:96:eb:29:d0:6e:39:0b:d9:bf:2a:d2:
                    3e:65:a4:e0:87:30:ab:26:09:01:ea:4a:a7:a2:38:
                    09:0e:f5:d3:b8:66:0a:cc:17:61:72:fb:a9:5e:e4:
                    98:ff:30:e4:93:11:f7:6e:13:f3:76:f6:f4:44:b7:
                    a8:2a:79:b3:4f:59:d8:67:b7:c0:4c:cd:50:57:d2:
                    09:65:f5:5e:2d:3b:e7:29:bf:e3:11:ff:37:1d:ad:
                    f2:cf:3b:ff:f7:49:d1:1a:05:1d:2b:0e:59:fe:fe:
                    e6:6a:5d:73:7f:0b:8c:b3:6d:c3:65:2a:93:f8:87:
                    b7:fd:c2:4a:e3:b8:d5:e6:55:8b:b3:e5:0e:4f:f4:
                    fa:a7
                Exponent: 65537 (0x10001)
        X509v3 extensions:
            X509v3 Basic Constraints: critical
                CA:FALSE
            X509v3 Key Usage: critical
                Digital Signature
            X509v3 Extended Key Usage: 
                OCSP Signing
            X509v3 Subject Key Identifier: 
                FA:23:45:E2:94:8E:6A:88:B8:72:B1:53:EA:2A:AE:B9:39:F8:6A:C8
            X509v3 Authority Key Identifier: 
                AC:87:DC:8B:3D:8A:DB:89:48:7E:6F:3B:1C:C6:70:92:09:17:6F:F9
    Signature Algorithm: sha256WithRSAEncryption
    Signature Value:
        3b:39:47:9e:28:f1:c0:46:eb:a8:de:0e:44:63:4d:3c:f4:59:
        c1:a4:2a:eb:6a:e5:50:76:ea:76:f7:a9:ca:a2:cb:70:91:c9:
        d3:c5:fd:d6:c9:86:3d:ad:f2:b8:a7:e4:b1:93:09:44:eb:27:
        30:01:85:13:db:0a:62:f0:0f:fa:59:de:af:93:1a:9e:df:07:
        da:b8:ec:19:c1:c9:56:f9:a6:8e:4e:03:ae:e0:f9:d8:d2:b7:
        d2:94:4a:70:95:b7:a8:7f:42:b2:1d:43:77:3a:9e:f8:76:93:
        4b:3a:48:09:5a:8b:3b:2c:38:97:ed:27:6b:d5:31:0b:f0:3d:
        a9:dc:d4:0b:96:55:07:41:59:e1:1f:68:70:47:04:6a:11:a4:
        81:e7:7d:75:08:15:9f:ca:20:20:69:fe:ef:50:3f:cf:02:0b:
        96:4a:9e:e7:ce:08:07:8a:c0:93:a6:aa:a9:91:53:ac:5e:80:
        3b:bd:6f:cb:d2:7c:e3:9b:cd:ff:b0:12:ec:9a:71:48:e1:01:
        96:21:f4:ee:bb:f8:1d:99:77:00:68:ef:e3:bc:5d:1d:58:bc:
        91:88:51:39:93:b1:91:88:5c:d0:9d:0f:87:0b:0d:04:ca:be:
        79:05:b9:42:ae:b3:62:df:7a:02:d7:d5:4e:a8:27:8f:0b:b8:
        4c:aa:d5:07:a6:e4:65:b0:13:78:cd:3a:3b:10:58:49:13:d7:
        74:88:76:8a:77:a4:d4:24:01:61:fe:0b:46:fb:4e:15:3a:fa:
        2b:c3:ca:10:9c:5f:2b:f5:33:21:93:16:be:a4:c5:bd:a4:80:
        88:74:2a:1e:09:d4:2a:c6:af:ed:be:46:7f:b8:d7:ad:a6:e0:
        8f:92:ae:2b:8a:97:ca:9c:fb:21:29:48:f1:38:98:09:f9:2b:
        55:53:7c:99:a5:23:21:58:35:1a:36:15:67:79:80:3f:fc:94:
        60:94:2b:78:a5:f1:81:b4:51:5c:08:1a:50:24:21:da:0b:cc:
        db:d7:3c:7d:d8:2c:b1:93:9d:f4:94:bb:fe:37:ad:8d:3f:06:
        9d:83:b0:e5:f2:ef:e4:88:75:e9:50:3a:f3:ef:aa:e4:00:54:
        ad:1d:cd:a7:6b:ec:0e:b7:31:92:82:da:0d:4b:c3:27:ee:7a:
        a8:f4:e0:a9:0a:f1:40:61:a0:09:a5:fb:24:f9:68:34:28:a9:
        1b:b6:5a:bd:aa:3a:c4:b8:89:92:ba:92:9c:81:f8:a8:ff:5a:
        0c:ef:af:97:b4:86:09:71:e8:13:28:1c:89:16:6f:43:de:1b:
        2f:1d:16:9f:37:7f:9c:5f:4e:4a:a8:22:4b:77:9e:f6:94:f8:
        d9:05:4b:bc:a6:aa:f7:6e
-----BEGIN CERTIFICATE-----
MIIFFDCCAvygAwIBAgICEAUwDQYJKoZIhvcNAQELBQAwgZQxCzAJBgNVBAYTAlVT
MQswCQYDVQQIEwJERTETMBEGA1UEBxMKV2lsbWluZ3RvbjEnMCUGA1UEChMeVGhl
IEFwYWNoZSBTb2Z0d2FyZSBGb3VuZGF0aW9uMRowGAYDVQQLExFBcGFjaGUgVG9t
Y2F0IFBNQzEeMBwGA1UEAxMVQXBhY2hlIFRvbWNhdCBUZXN0IENBMB4XDTI1MTIw
NTE5MzM1NVoXDTI3MTIwNTE5MzM1NVowgY0xCzAJBgNVBAYTAlVTMQswCQYDVQQI
EwJERTETMBEGA1UEBxMKV2lsbWluZ3RvbjEnMCUGA1UEChMeVGhlIEFwYWNoZSBT
b2Z0d2FyZSBGb3VuZGF0aW9uMRowGAYDVQQLExFBcGFjaGUgVG9tY2F0IFBNQzEX
MBUGA1UEAxMOT0NTUCBSZXNwb25kZXIwggEiMA0GCSqGSIb3DQEBAQUAA4IBDwAw
ggEKAoIBAQCbrrFA5eSEtsPsk88jY1FRf73TZB3gI7szRPFHxvXSTSoTKvRM0kQT
VgNzFjCYvmax+zzpnFphJbhH73IEratq+IP+AKbAi6PvNAlPE+b6ltMrJNvj0UpA
UF+fjzH63kIN5qJKeuamSFqXBLO5vVIuL+kCJxuPvysZKOiW6ynQbjkL2b8q0j5l
pOCHMKsmCQHqSqeiOAkO9dO4ZgrMF2Fy+6le5Jj/MOSTEfduE/N29vREt6gqebNP
Wdhnt8BMzVBX0gll9V4tO+cpv+MR/zcdrfLPO//3SdEaBR0rDln+/uZqXXN/C4yz
bcNlKpP4h7f9wkrjuNXmVYuz5Q5P9PqnAgMBAAGjdTBzMAwGA1UdEwEB/wQCMAAw
DgYDVR0PAQH/BAQDAgeAMBMGA1UdJQQMMAoGCCsGAQUFBwMJMB0GA1UdDgQWBBT6
I0XilI5qiLhysVPqKq65OfhqyDAfBgNVHSMEGDAWgBSsh9yLPYrbiUh+bzscxnCS
CRdv+TANBgkqhkiG9w0BAQsFAAOCAgEAOzlHnijxwEbrqN4ORGNNPPRZwaQq62rl
UHbqdvepyqLLcJHJ08X91smGPa3yuKfksZMJROsnMAGFE9sKYvAP+lner5Mant8H
2rjsGcHJVvmmjk4DruD52NK30pRKcJW3qH9Csh1Ddzqe+HaTSzpICVqLOyw4l+0n
a9UxC/A9qdzUC5ZVB0FZ4R9ocEcEahGkged9dQgVn8ogIGn+71A/zwILlkqe584I
B4rAk6aqqZFTrF6AO71vy9J845vN/7AS7JpxSOEBliH07rv4HZl3AGjv47xdHVi8
kYhROZOxkYhc0J0PhwsNBMq+eQW5Qq6zYt96AtfVTqgnjwu4TKrVB6bkZbATeM06
OxBYSRPXdIh2inek1CQBYf4LRvtOFTr6K8PKEJxfK/UzIZMWvqTFvaSAiHQqHgnU
Ksav7b5Gf7jXrabgj5KuK4qXypz7ISlI8TiYCfkrVVN8maUjIVg1GjYVZ3mAP/yU
YJQreKXxgbRRXAgaUCQh2gvM29c8fdgssZOd9JS7/jetjT8GnYOw5fLv5Ih16VA6
8++q5ABUrR3Np2vsDrcxkoLaDUvDJ+56qPTgqQrxQGGgCaX7JPloNCipG7Zavao6
xLiJkrqSnIH4qP9aDO+vl7SGCXHoEygciRZvQ94bLx0Wnzd/nF9OSqgiS3ee9pT4
2QVLvKaq924=
-----END CERTIFICATE-----
