Certificate:
    Data:
        Version: 3 (0x2)
        Serial Number: 4096 (0x1000)
        Signature Algorithm: sha256WithRSAEncryption
        Issuer: CN=Test CA
        Validity
            Not Before: Oct  9 17:50:19 2025 GMT
            Not After : Oct  9 17:50:19 2026 GMT
        Subject: CN=localhost
        Subject Public Key Info:
            Public Key Algorithm: rsaEncryption
                Public-Key: (2048 bit)
                Modulus:
                    00:b3:a6:2f:95:ec:a3:9f:18:df:92:02:2f:f6:d8:
                    e5:90:0d:45:b7:9b:fb:2c:63:62:a0:5d:06:a2:c6:
                    5a:38:d0:02:7e:bf:ae:22:05:5a:c9:83:e1:5f:7b:
                    74:00:b6:7e:58:e2:1e:40:29:b1:5f:2c:3c:5a:c2:
                    5a:04:bb:4e:0f:1a:ae:f0:bc:cb:16:49:c4:6a:59:
                    2e:56:e7:73:e0:c1:01:72:b0:d5:a0:86:b0:f5:77:
                    16:24:57:9b:51:24:97:af:bc:3a:2c:9f:c2:89:b0:
                    cc:f2:d9:f9:1d:6d:25:90:2a:1a:36:3e:cb:8a:13:
                    7c:e2:99:6d:7e:a1:ef:a8:36:b1:3b:75:36:14:88:
                    3e:32:7b:c0:5a:55:ec:2c:9f:f8:32:f7:55:86:22:
                    46:ea:ba:19:46:d0:e0:77:df:f3:95:d3:98:f8:62:
                    1c:b7:fe:11:01:e7:bb:5d:82:d9:ee:32:44:9f:88:
                    e1:7d:f9:20:83:02:f8:8d:4d:76:26:69:c7:b1:fd:
                    82:7f:a9:c9:0a:8d:26:a4:18:05:ee:04:e9:61:04:
                    9f:e5:80:cc:f4:d5:3d:f7:d3:ce:1f:00:27:b5:d1:
                    09:b6:cb:93:36:b4:4c:58:e3:65:f6:85:4d:51:55:
                    5f:25:01:35:b5:a7:5a:44:7f:0b:69:70:5d:8e:eb:
                    ff:b9
                Exponent: 65537 (0x10001)
        X509v3 extensions:
            X509v3 Basic Constraints: critical
                CA:FALSE
            X509v3 Key Usage: critical
                Digital Signature, Key Encipherment
            X509v3 Extended Key Usage: 
                TLS Web Server Authentication
            Authority Information Access: 
                OCSP - URI:http://127.0.0.1:8888/ocsp
            X509v3 Subject Alternative Name: 
                IP Address:127.0.0.1, DNS:localhost
            X509v3 Subject Key Identifier: 
                F0:0D:29:83:76:05:84:3A:15:D1:D7:3D:7C:80:B1:A2:B9:B2:34:E9
            X509v3 Authority Key Identifier: 
                C8:FA:78:96:74:8D:80:68:85:60:FB:80:93:17:68:3A:A6:B6:FC:A8
    Signature Algorithm: sha256WithRSAEncryption
    Signature Value:
        55:20:97:f2:f9:44:63:65:50:f5:a2:92:99:d2:ef:90:1b:97:
        aa:0d:3a:bb:6f:a1:d1:dd:99:64:86:f0:ba:f2:12:61:b6:c4:
        22:20:f1:5b:b4:8c:19:68:57:18:a4:63:47:52:e9:2e:d1:68:
        b2:de:da:02:a8:4f:8f:ec:c1:d4:f7:e4:69:09:25:de:d2:60:
        5f:bf:e9:fe:12:74:ae:f1:25:59:04:53:e1:a3:3c:b9:c2:99:
        91:78:3d:79:a3:29:f9:3a:5b:59:32:b1:2c:c3:f0:3f:c2:49:
        14:36:b9:3e:c5:3f:47:1c:14:bc:da:4f:39:2d:e1:16:f6:a6:
        c7:fa:f4:b8:bb:95:d9:49:b7:0b:51:ae:9b:67:b6:01:c2:30:
        aa:db:17:21:6f:64:cd:2d:ff:ea:9a:ce:4a:a7:44:f5:8f:a7:
        b5:f8:87:48:bf:03:8e:3e:ab:8e:44:e7:a6:64:9a:f2:06:5a:
        33:21:e1:01:8c:bf:c7:61:36:90:e4:5f:b6:e7:26:55:9e:44:
        7c:d8:52:75:f9:1b:df:7a:ef:ea:b1:a3:08:19:ae:e1:39:42:
        ec:d2:ad:dc:63:a8:f4:54:db:8d:9f:12:ea:fe:94:cf:af:eb:
        88:66:bb:3c:cf:a9:a3:5e:4a:c5:09:94:f8:4e:03:a2:01:a1:
        e5:24:92:eb
-----BEGIN CERTIFICATE-----
MIIDbTCCAlWgAwIBAgICEAAwDQYJKoZIhvcNAQELBQAwEjEQMA4GA1UEAwwHVGVz
dCBDQTAeFw0yNTEwMDkxNzUwMTlaFw0yNjEwMDkxNzUwMTlaMBQxEjAQBgNVBAMM
CWxvY2FsaG9zdDCCASIwDQYJKoZIhvcNAQEBBQADggEPADCCAQoCggEBALOmL5Xs
o58Y35ICL/bY5ZANRbeb+yxjYqBdBqLGWjjQAn6/riIFWsmD4V97dAC2fljiHkAp
sV8sPFrCWgS7Tg8arvC8yxZJxGpZLlbnc+DBAXKw1aCGsPV3FiRXm1Ekl6+8Oiyf
womwzPLZ+R1tJZAqGjY+y4oTfOKZbX6h76g2sTt1NhSIPjJ7wFpV7Cyf+DL3VYYi
Ruq6GUbQ4Hff85XTmPhiHLf+EQHnu12C2e4yRJ+I4X35IIMC+I1NdiZpx7H9gn+p
yQqNJqQYBe4E6WEEn+WAzPTVPffTzh8AJ7XRCbbLkza0TFjjZfaFTVFVXyUBNbWn
WkR/C2lwXY7r/7kCAwEAAaOByjCBxzAMBgNVHRMBAf8EAjAAMA4GA1UdDwEB/wQE
AwIFoDATBgNVHSUEDDAKBggrBgEFBQcDATA2BggrBgEFBQcBAQQqMCgwJgYIKwYB
BQUHMAGGGmh0dHA6Ly8xMjcuMC4wLjE6ODg4OC9vY3NwMBoGA1UdEQQTMBGHBH8A
AAGCCWxvY2FsaG9zdDAdBgNVHQ4EFgQU8A0pg3YFhDoV0dc9fICxormyNOkwHwYD
VR0jBBgwFoAUyPp4lnSNgGiFYPuAkxdoOqa2/KgwDQYJKoZIhvcNAQELBQADggEB
AFUgl/L5RGNlUPWikpnS75Abl6oNOrtvodHdmWSG8LryEmG2xCIg8Vu0jBloVxik
Y0dS6S7RaLLe2gKoT4/swdT35GkJJd7SYF+/6f4SdK7xJVkEU+GjPLnCmZF4PXmj
Kfk6W1kysSzD8D/CSRQ2uT7FP0ccFLzaTzkt4Rb2psf69Li7ldlJtwtRrptntgHC
MKrbFyFvZM0t/+qazkqnRPWPp7X4h0i/A44+q45E56ZkmvIGWjMh4QGMv8dhNpDk
X7bnJlWeRHzYUnX5G9967+qxowgZruE5QuzSrdxjqPRU242fEur+lM+v64hmuzzP
qaNeSsUJlPhOA6IBoeUkkus=
-----END CERTIFICATE-----
