Certificate:
    Data:
        Version: 3 (0x2)
        Serial Number: 4096 (0x1000)
        Signature Algorithm: sha256WithRSAEncryption
        Issuer: CN=Test CA
        Validity
            Not Before: Oct  2 16:39:51 2025 GMT
            Not After : Oct  2 16:39:51 2026 GMT
        Subject: CN=localhost
        Subject Public Key Info:
            Public Key Algorithm: rsaEncryption
                Public-Key: (2048 bit)
                Modulus:
                    00:b8:c7:fd:37:78:39:13:9a:47:de:18:8b:ca:2a:
                    6f:49:ba:7e:53:f9:cc:69:95:0b:26:e4:24:25:d1:
                    89:c2:6d:f1:40:9f:1e:2a:ce:40:0d:3e:a2:2f:98:
                    bb:af:8d:a0:b5:9d:63:1a:cb:b2:51:79:cc:e7:8d:
                    4a:50:8f:b5:11:66:cc:eb:f8:b3:77:f1:2a:f6:7c:
                    db:8a:9f:d0:90:d4:79:9e:af:20:59:0c:d8:e8:74:
                    4b:c7:89:bb:8d:41:f3:24:e6:2e:eb:f5:c2:8f:65:
                    84:fe:be:03:5a:19:8e:a8:c2:5e:f6:54:d6:e5:39:
                    8a:1a:22:76:ed:31:70:53:c9:48:e5:0d:af:f4:86:
                    14:60:6e:52:fc:eb:e3:c1:9c:49:f6:f1:47:0e:3e:
                    d8:b0:87:b4:af:0d:2f:84:de:19:e9:6b:f0:09:10:
                    91:aa:fa:ac:c0:7b:46:de:34:cb:cc:71:14:93:5e:
                    ff:8b:19:33:8c:74:96:2d:06:7a:f9:3c:4b:03:58:
                    22:55:90:36:ed:43:5b:e8:b7:32:ae:c4:3e:de:b2:
                    9a:fd:8a:bd:60:b2:2c:0f:5b:b3:2d:61:bc:c6:b2:
                    de:c3:ea:f1:4a:d3:72:72:95:16:fd:1f:64:b3:6d:
                    c2:93:2d:dd:e6:bf:02:76:be:c8:a7:f2:1d:e5:c2:
                    9d:ad
                Exponent: 65537 (0x10001)
        X509v3 extensions:
            X509v3 Basic Constraints: critical
                CA:FALSE
            X509v3 Key Usage: critical
                Digital Signature, Key Encipherment
            X509v3 Extended Key Usage: 
                TLS Web Server Authentication
            Authority Information Access: 
                OCSP - URI:http://127.0.0.1:8888/ocsp
            X509v3 Subject Alternative Name: 
                IP Address:127.0.0.1, DNS:localhost
            X509v3 Subject Key Identifier: 
                DB:59:2C:AD:B5:4D:47:FF:AA:D4:84:5A:49:7B:F7:D5:AA:1D:FE:78
            X509v3 Authority Key Identifier: 
                C4:35:2B:55:CA:30:4A:BD:ED:B6:B8:6C:AB:57:08:85:B9:C2:EF:70
    Signature Algorithm: sha256WithRSAEncryption
    Signature Value:
        2c:4d:51:a4:b6:34:c8:57:8d:84:b4:bf:1d:cd:3c:9c:42:bd:
        9a:a7:e3:38:d3:43:0f:85:51:bd:23:0b:27:71:ca:27:84:23:
        66:da:ab:b6:5e:96:64:da:cf:59:35:63:e3:e3:d6:2a:f7:0f:
        c4:12:10:95:b3:67:87:48:8c:8e:6a:96:73:f6:63:ad:3a:9d:
        19:2a:da:41:8d:bc:04:57:04:13:6b:53:ac:7c:7b:d8:9b:5b:
        5c:0f:cd:f3:55:d6:af:69:c9:ea:8d:3f:9a:3a:75:69:88:07:
        8f:d1:6c:34:fd:7d:e1:51:9e:2d:9d:65:c3:0a:5e:04:83:9c:
        09:b4:76:f3:97:7c:06:8b:35:87:b0:2c:b1:4f:95:61:47:a5:
        e3:e4:d7:32:8b:21:82:0b:e8:16:7b:81:6f:e2:c7:78:5c:98:
        95:60:82:0e:64:62:49:06:09:e4:0a:4a:dc:ee:f0:63:3d:cd:
        d1:80:21:b1:11:0e:0a:f2:55:ce:b2:c4:36:f5:40:76:4a:f0:
        f6:e1:7d:d5:b9:43:cb:4d:a7:fe:2a:ab:87:7a:e3:0c:66:aa:
        47:35:eb:fd:58:44:4a:fc:92:f0:7c:dc:a1:17:ba:19:61:3a:
        2a:1f:99:10:ee:3a:48:cb:99:88:92:17:70:4f:0e:47:d1:3a:
        ac:da:7f:9a
-----BEGIN CERTIFICATE-----
MIIDbTCCAlWgAwIBAgICEAAwDQYJKoZIhvcNAQELBQAwEjEQMA4GA1UEAwwHVGVz
dCBDQTAeFw0yNTEwMDIxNjM5NTFaFw0yNjEwMDIxNjM5NTFaMBQxEjAQBgNVBAMM
CWxvY2FsaG9zdDCCASIwDQYJKoZIhvcNAQEBBQADggEPADCCAQoCggEBALjH/Td4
OROaR94Yi8oqb0m6flP5zGmVCybkJCXRicJt8UCfHirOQA0+oi+Yu6+NoLWdYxrL
slF5zOeNSlCPtRFmzOv4s3fxKvZ824qf0JDUeZ6vIFkM2Oh0S8eJu41B8yTmLuv1
wo9lhP6+A1oZjqjCXvZU1uU5ihoidu0xcFPJSOUNr/SGFGBuUvzr48GcSfbxRw4+
2LCHtK8NL4TeGelr8AkQkar6rMB7Rt40y8xxFJNe/4sZM4x0li0Gevk8SwNYIlWQ
Nu1DW+i3Mq7EPt6ymv2KvWCyLA9bsy1hvMay3sPq8UrTcnKVFv0fZLNtwpMt3ea/
Ana+yKfyHeXCna0CAwEAAaOByjCBxzAMBgNVHRMBAf8EAjAAMA4GA1UdDwEB/wQE
AwIFoDATBgNVHSUEDDAKBggrBgEFBQcDATA2BggrBgEFBQcBAQQqMCgwJgYIKwYB
BQUHMAGGGmh0dHA6Ly8xMjcuMC4wLjE6ODg4OC9vY3NwMBoGA1UdEQQTMBGHBH8A
AAGCCWxvY2FsaG9zdDAdBgNVHQ4EFgQU21ksrbVNR/+q1IRaSXv31aod/ngwHwYD
VR0jBBgwFoAUxDUrVcowSr3ttrhsq1cIhbnC73AwDQYJKoZIhvcNAQELBQADggEB
ACxNUaS2NMhXjYS0vx3NPJxCvZqn4zjTQw+FUb0jCydxyieEI2baq7ZelmTaz1k1
Y+Pj1ir3D8QSEJWzZ4dIjI5qlnP2Y606nRkq2kGNvARXBBNrU6x8e9ibW1wPzfNV
1q9pyeqNP5o6dWmIB4/RbDT9feFRni2dZcMKXgSDnAm0dvOXfAaLNYewLLFPlWFH
pePk1zKLIYIL6BZ7gW/ix3hcmJVggg5kYkkGCeQKStzu8GM9zdGAIbERDgryVc6y
xDb1QHZK8PbhfdW5Q8tNp/4qq4d64wxmqkc16/1YREr8kvB83KEXuhlhOiofmRDu
OkjLmYiSF3BPDkfROqzaf5o=
-----END CERTIFICATE-----
