Certificate:
    Data:
        Version: 3 (0x2)
        Serial Number: 4096 (0x1000)
        Signature Algorithm: sha256WithRSAEncryption
        Issuer: CN=Test CA
        Validity
            Not Before: Oct  6 18:09:37 2025 GMT
            Not After : Oct  6 18:09:37 2026 GMT
        Subject: CN=localhost
        Subject Public Key Info:
            Public Key Algorithm: rsaEncryption
                Public-Key: (2048 bit)
                Modulus:
                    00:e6:13:ec:d0:11:cc:5e:32:43:94:a0:5f:c2:b7:
                    9c:9b:f3:3c:33:55:8f:fd:48:28:71:b9:e4:6d:64:
                    a9:62:3a:df:c8:35:a4:d6:5f:d4:08:0c:c1:9e:18:
                    20:08:9c:0f:d4:2f:79:ab:34:ab:f7:4a:7c:ab:4b:
                    38:6f:44:c3:93:a3:2e:2f:af:c9:a5:16:69:50:10:
                    06:8c:96:34:15:5c:f9:98:06:a9:a6:6f:64:a2:8a:
                    b2:3a:68:33:7a:34:42:72:a7:59:e7:59:9c:6c:fa:
                    da:2e:18:d2:61:61:99:59:2f:bb:1a:64:9b:bd:9a:
                    77:03:96:9b:9e:af:96:e2:3c:68:b1:fd:44:b8:86:
                    3e:3e:ac:b0:f1:89:01:1f:6f:dc:ef:36:23:b3:3d:
                    ca:97:9a:b8:ac:77:a7:7c:ee:23:6c:86:66:94:45:
                    7f:fe:f2:c3:27:84:e1:4f:40:09:83:28:2c:d5:c3:
                    ed:05:bc:30:eb:db:8d:74:1f:88:ac:e6:19:5b:a0:
                    8d:b6:21:eb:72:84:3d:19:90:f8:26:ad:2c:13:ad:
                    3c:a0:fd:c6:5d:49:9d:a1:33:2e:86:2c:c3:4d:7f:
                    78:ce:aa:c6:30:36:f2:d8:4e:4d:f5:b5:21:27:e1:
                    e1:71:a0:99:97:db:c4:d9:5f:f6:be:6c:28:70:2d:
                    21:61
                Exponent: 65537 (0x10001)
        X509v3 extensions:
            X509v3 Basic Constraints: critical
                CA:FALSE
            X509v3 Key Usage: critical
                Digital Signature, Key Encipherment
            X509v3 Extended Key Usage: 
                TLS Web Server Authentication
            Authority Information Access: 
                OCSP - URI:http://127.0.0.1:8888/ocsp
            X509v3 Subject Alternative Name: 
                IP Address:127.0.0.1, DNS:localhost
            X509v3 Subject Key Identifier: 
                AF:63:43:43:2B:E3:A2:F8:1E:13:7D:23:E1:D7:35:3F:3F:E7:D7:83
            X509v3 Authority Key Identifier: 
                47:F0:88:18:A1:DD:5F:C2:E7:21:9D:E7:90:25:8A:F8:CC:0C:97:07
    Signature Algorithm: sha256WithRSAEncryption
    Signature Value:
        83:2c:30:77:81:7e:0d:92:4f:f9:2e:76:1b:e0:8c:b7:f3:f6:
        73:46:0a:86:0f:81:49:08:b4:86:88:48:71:1f:75:2b:15:8a:
        97:4a:17:4e:35:7a:ff:5e:38:9b:d8:1e:88:69:42:e4:ba:33:
        37:f1:c7:26:b1:04:52:2f:e9:6b:c3:51:ee:ad:c6:f2:ae:80:
        e0:c3:a4:82:7a:90:2f:6c:80:d2:ab:8b:f4:33:a3:8b:d5:30:
        ec:08:4f:6f:5a:94:ed:c3:36:a5:64:19:59:b3:7c:07:54:ab:
        a9:f8:a2:a7:42:67:0a:37:9f:43:86:aa:63:07:c0:a2:b7:d3:
        c1:30:f7:de:e8:74:72:57:f6:e7:da:b5:cb:ec:2d:58:58:f9:
        fd:09:e9:6e:db:3d:76:3d:0e:2d:6c:63:13:f9:81:50:c1:5e:
        1a:b4:d6:dc:e5:e7:ba:d0:83:7f:c9:ef:84:de:86:a4:6c:0a:
        40:df:16:80:3d:28:72:56:3a:3f:d7:02:58:93:05:78:2a:7c:
        2b:cd:5b:4f:0c:ce:96:40:e1:4a:ae:d9:9c:74:34:bc:16:1f:
        73:45:af:d6:4a:ef:6b:97:3e:0f:8e:d4:4b:50:7e:1a:7a:ac:
        07:20:ed:5a:78:16:13:ab:c6:84:b6:e4:09:0b:51:b1:a9:4f:
        16:f6:34:67
-----BEGIN CERTIFICATE-----
MIIDbTCCAlWgAwIBAgICEAAwDQYJKoZIhvcNAQELBQAwEjEQMA4GA1UEAwwHVGVz
dCBDQTAeFw0yNTEwMDYxODA5MzdaFw0yNjEwMDYxODA5MzdaMBQxEjAQBgNVBAMM
CWxvY2FsaG9zdDCCASIwDQYJKoZIhvcNAQEBBQADggEPADCCAQoCggEBAOYT7NAR
zF4yQ5SgX8K3nJvzPDNVj/1IKHG55G1kqWI638g1pNZf1AgMwZ4YIAicD9Qveas0
q/dKfKtLOG9Ew5OjLi+vyaUWaVAQBoyWNBVc+ZgGqaZvZKKKsjpoM3o0QnKnWedZ
nGz62i4Y0mFhmVkvuxpkm72adwOWm56vluI8aLH9RLiGPj6ssPGJAR9v3O82I7M9
ypeauKx3p3zuI2yGZpRFf/7ywyeE4U9ACYMoLNXD7QW8MOvbjXQfiKzmGVugjbYh
63KEPRmQ+CatLBOtPKD9xl1JnaEzLoYsw01/eM6qxjA28thOTfW1ISfh4XGgmZfb
xNlf9r5sKHAtIWECAwEAAaOByjCBxzAMBgNVHRMBAf8EAjAAMA4GA1UdDwEB/wQE
AwIFoDATBgNVHSUEDDAKBggrBgEFBQcDATA2BggrBgEFBQcBAQQqMCgwJgYIKwYB
BQUHMAGGGmh0dHA6Ly8xMjcuMC4wLjE6ODg4OC9vY3NwMBoGA1UdEQQTMBGHBH8A
AAGCCWxvY2FsaG9zdDAdBgNVHQ4EFgQUr2NDQyvjovgeE30j4dc1Pz/n14MwHwYD
VR0jBBgwFoAUR/CIGKHdX8LnIZ3nkCWK+MwMlwcwDQYJKoZIhvcNAQELBQADggEB
AIMsMHeBfg2ST/kudhvgjLfz9nNGCoYPgUkItIaISHEfdSsVipdKF041ev9eOJvY
HohpQuS6MzfxxyaxBFIv6WvDUe6txvKugODDpIJ6kC9sgNKri/Qzo4vVMOwIT29a
lO3DNqVkGVmzfAdUq6n4oqdCZwo3n0OGqmMHwKK308Ew997odHJX9ufatcvsLVhY
+f0J6W7bPXY9Di1sYxP5gVDBXhq01tzl57rQg3/J74TehqRsCkDfFoA9KHJWOj/X
AliTBXgqfCvNW08MzpZA4Uqu2Zx0NLwWH3NFr9ZK72uXPg+O1EtQfhp6rAcg7Vp4
FhOrxoS25AkLUbGpTxb2NGc=
-----END CERTIFICATE-----
